
car1.elf:     file format elf32-avr

Sections:
Idx Name          Size      VMA       LMA       File off  Algn
  0 .data         000001a0  00800100  0000627a  0000630e  2**0
                  CONTENTS, ALLOC, LOAD, DATA
  1 .text         0000627a  00000000  00000000  00000094  2**1
                  CONTENTS, ALLOC, LOAD, READONLY, CODE
  2 .bss          00000039  008002a0  008002a0  000064ae  2**0
                  ALLOC
  3 .debug_aranges 00000220  00000000  00000000  000064ae  2**0
                  CONTENTS, READONLY, DEBUGGING
  4 .debug_pubnames 000005d7  00000000  00000000  000066ce  2**0
                  CONTENTS, READONLY, DEBUGGING
  5 .debug_info   00003179  00000000  00000000  00006ca5  2**0
                  CONTENTS, READONLY, DEBUGGING
  6 .debug_abbrev 0000182a  00000000  00000000  00009e1e  2**0
                  CONTENTS, READONLY, DEBUGGING
  7 .debug_line   00001e3f  00000000  00000000  0000b648  2**0
                  CONTENTS, READONLY, DEBUGGING
  8 .debug_frame  000003d0  00000000  00000000  0000d488  2**2
                  CONTENTS, READONLY, DEBUGGING
  9 .debug_str    000006e6  00000000  00000000  0000d858  2**0
                  CONTENTS, READONLY, DEBUGGING
 10 .debug_loc    00000fba  00000000  00000000  0000df3e  2**0
                  CONTENTS, READONLY, DEBUGGING
 11 .debug_ranges 00000108  00000000  00000000  0000eef8  2**0
                  CONTENTS, READONLY, DEBUGGING

Disassembly of section .text:

00000000 <__vectors>:
       0:	0c 94 f0 21 	jmp	0x43e0	; 0x43e0 <__ctors_end>
       4:	0c 94 0f 22 	jmp	0x441e	; 0x441e <__bad_interrupt>
       8:	0c 94 0f 22 	jmp	0x441e	; 0x441e <__bad_interrupt>
       c:	0c 94 0f 22 	jmp	0x441e	; 0x441e <__bad_interrupt>
      10:	0c 94 0f 22 	jmp	0x441e	; 0x441e <__bad_interrupt>
      14:	0c 94 0f 22 	jmp	0x441e	; 0x441e <__bad_interrupt>
      18:	0c 94 0f 22 	jmp	0x441e	; 0x441e <__bad_interrupt>
      1c:	0c 94 0f 22 	jmp	0x441e	; 0x441e <__bad_interrupt>
      20:	0c 94 0f 22 	jmp	0x441e	; 0x441e <__bad_interrupt>
      24:	0c 94 b3 23 	jmp	0x4766	; 0x4766 <__vector_9>
      28:	0c 94 0f 22 	jmp	0x441e	; 0x441e <__bad_interrupt>
      2c:	0c 94 0f 22 	jmp	0x441e	; 0x441e <__bad_interrupt>
      30:	0c 94 7a 22 	jmp	0x44f4	; 0x44f4 <__vector_12>
      34:	0c 94 0f 22 	jmp	0x441e	; 0x441e <__bad_interrupt>
      38:	0c 94 0f 22 	jmp	0x441e	; 0x441e <__bad_interrupt>
      3c:	0c 94 0f 22 	jmp	0x441e	; 0x441e <__bad_interrupt>
      40:	0c 94 0f 22 	jmp	0x441e	; 0x441e <__bad_interrupt>
      44:	0c 94 0f 22 	jmp	0x441e	; 0x441e <__bad_interrupt>
      48:	0c 94 0f 22 	jmp	0x441e	; 0x441e <__bad_interrupt>
      4c:	0c 94 0f 22 	jmp	0x441e	; 0x441e <__bad_interrupt>
      50:	0c 94 0f 22 	jmp	0x441e	; 0x441e <__bad_interrupt>
      54:	0c 94 0f 22 	jmp	0x441e	; 0x441e <__bad_interrupt>
      58:	0c 94 0f 22 	jmp	0x441e	; 0x441e <__bad_interrupt>
      5c:	0c 94 0f 22 	jmp	0x441e	; 0x441e <__bad_interrupt>
      60:	0c 94 0f 22 	jmp	0x441e	; 0x441e <__bad_interrupt>
      64:	0c 94 0f 22 	jmp	0x441e	; 0x441e <__bad_interrupt>
      68:	0c 94 0f 22 	jmp	0x441e	; 0x441e <__bad_interrupt>
      6c:	0c 94 0f 22 	jmp	0x441e	; 0x441e <__bad_interrupt>
      70:	0c 94 0f 22 	jmp	0x441e	; 0x441e <__bad_interrupt>
      74:	0c 94 0f 22 	jmp	0x441e	; 0x441e <__bad_interrupt>
      78:	0c 94 0f 22 	jmp	0x441e	; 0x441e <__bad_interrupt>
      7c:	0c 94 0f 22 	jmp	0x441e	; 0x441e <__bad_interrupt>
      80:	0c 94 0f 22 	jmp	0x441e	; 0x441e <__bad_interrupt>
      84:	0c 94 0f 22 	jmp	0x441e	; 0x441e <__bad_interrupt>
      88:	0c 94 0f 22 	jmp	0x441e	; 0x441e <__bad_interrupt>

0000008c <jingle>:
      8c:	74 61 2a 6b 00 00 7f 80 7f 80 7f 80 7f 7f 80 7e     ta*k...........~
      9c:	81 7c 8d 98 9c 8f 68 65 68 66 65 89 9d 97 98 9d     .|....hehfe.....
      ac:	87 65 66 68 64 6a 90 9c 97 98 9c 7f 63 67 68 63     .efhdj......cghc
      bc:	70 96 9b 97 99 9a 77 62 67 67 62 77 9a 99 97 9b     p.....wbggbw....
      cc:	96 70 63 68 67 63 7f 9c 98 97 9c 90 6a 64 68 66     .pchgc......jdhf
      dc:	65 87 9d 98 98 9d 89 66 65 68 65 68 8e 9c 97 98     e......feheh....
      ec:	9c 81 64 68 69 65 6f 93 99 95 97 99 7a 64 69 69     ..dhieo.....zdii
      fc:	64 75 97 98 95 99 96 73 65 69 69 64 7d 9a 97 96     du.....seiid}...
     10c:	9a 91 6d 66 6a 68 66 84 9b 96 96 9b 8b 68 67 6a     ..mfjhf......hgj
     11c:	67 69 8b 9a 96 96 9b 83 66 68 69 65 6d 92 9a 96     gi......fhiem...
     12c:	97 99 7c 64 69 69 65 73 96 98 95 98 97 75 64 69     ..|diies.....udi
     13c:	69 64 7a 99 97 95 99 93 6e 65 69 68 65 82 9b 96     idz.....neihe...
     14c:	96 9a 8d 69 66 6a 67 68 89 9b 96 96 9b 86 66 68     ...ifjgh......fh
     15c:	6a 66 6c 90 9a 96 97 9a 7e 65 68 69 65 71 95 99     jfl.....~ehieq..
     16c:	95 98 98 77 64 69 69 64 78 98 98 95 99 94 70 65     ...wdiidx.....pe
     17c:	69 68 65 80 9a 97 96 9a 8f 6b 66 6a 67 67 87 9b     ihe......kfjgg..
     18c:	96 96 9b 88 67 67 6a 66 6a 8e 9a 96 97 9a 80 65     ....ggjfj......e
     19c:	68 69 65 70 94 99 95 98 99 79 64 69 69 64 76 98     hiep.....ydiidv.
     1ac:	98 95 99 95 72 65 69 69 65 7e 9a 97 96 9a 90 6c     ....reiie~.....l
     1bc:	66 6a 68 66 85 9b 96 96 9b 8a 68 67 6a 66 69 8c     fjhf......hgjfi.
     1cc:	9a 96 96 9b 82 65 68 69 65 6e 92 99 95 97 99 7b     .....ehien.....{
     1dc:	64 69 69 64 74 97 98 95 98 96 74 65 69 69 64 7b     diidt.....teiid{
     1ec:	99 97 96 9a 92 6d 65 69 68 65 83 9b 96 96 9a 8c     .....meihe......
     1fc:	69 67 6a 67 68 8a 9b 96 96 9b 85 66 68 6a 66 6c     igjgh......fhjfl
     20c:	91 9a 96 97 9a 7d 65 69 69 65 72 96 99 95 98 97     .....}eiier.....
     21c:	76 64 69 69 64 79 99 97 95 99 93 6f 65 69 68 65     vdiidy.....oeihe
     22c:	81 9a 97 97 9c 8f 68 64 68 65 65 89 9d 98 98 9d     ......hdhee.....
     23c:	87 65 66 68 64 69 90 9c 97 98 9c 7f 63 67 68 63     .efhdi......cghc
     24c:	6f 96 9b 97 99 9a 77 62 67 67 62 77 9a 99 97 9b     o.....wbggbw....
     25c:	96 70 63 68 67 63 7f 9c 98 97 9c 91 6a 64 68 66     .pchgc......jdhf
     26c:	65 87 9d 98 97 9d 8a 66 65 68 65 68 8e 9c 97 98     e......feheh....
     27c:	9c 82 63 66 68 63 6d 94 9b 97 99 9b 79 62 67 68     ..cfhcm.....ybgh
     28c:	62 74 99 9a 97 9a 98 72 63 68 67 63 7c 9b 99 97     bt.....rchgc|...
     29c:	9c 92 6b 64 68 66 64 84 9d 98 97 9c 8c 67 65 68     ..kdhfd......geh
     2ac:	65 67 8c 9c 97 98 9d 84 64 66 68 64 6c 93 9b 97     eg......dfhdl...
     2bc:	99 9b 7c 62 67 68 63 72 98 9a 97 9a 99 74 63 68     ..|bghcr.....tch
     2cc:	67 62 7a 9b 99 97 9b 94 6d 63 68 66 63 82 9c 98     gbz.....mchfc...
     2dc:	97 9c 8e 68 65 68 65 66 8a 9d 97 98 9d 86 64 66     ...hehef......df
     2ec:	68 64 6a 91 9c 97 98 9c 7e 63 67 68 63 70 96 9b     hdj.....~cghcp..
     2fc:	97 9a 9a 76 62 67 67 62 78 9a 99 97 9b 96 6f 63     ...vbggbx.....oc
     30c:	68 67 63 80 9c 98 97 9c 90 69 64 68 66 65 88 9d     hgc......idhfe..
     31c:	98 98 9d 89 65 65 68 64 69 8f 9c 97 98 9c 81 63     ....eehdi......c
     32c:	67 68 63 6e 95 9b 97 99 9a 78 62 67 68 62 75 99     ghcn.....xbghbu.
     33c:	9a 97 9a 97 71 63 68 67 63 7d 9c 99 97 9c 92 6b     ....qchgc}.....k
     34c:	64 68 66 64 85 9d 98 97 9d 8b 66 65 68 65 67 8d     dhfd......feheg.
     35c:	9c 97 98 9c 83 64 66 68 64 6c 93 9b 97 99 9b 7b     .....dfhdl.....{
     36c:	62 67 68 63 73 98 9a 97 9a 98 73 63 68 67 62 7b     bghcs.....schgb{
     37c:	9b 99 97 9b 93 6c 64 68 66 64 83 9c 98 97 9c 8d     .....ldhfd......
     38c:	67 65 68 65 66 8b 9c 97 98 9d 85 64 66 68 64 6b     gehef......dfhdk
     39c:	92 9c 97 99 9c 7d 63 67 68 63 71 97 9a 97 9a 99     .....}cghcq.....
     3ac:	75 62 68 67 62 79 9b 99 97 9b 95 6e 63 68 67 63     ubhgby.....nchgc
     3bc:	81 9c 98 97 9c 8f 69 64 68 65 65 89 9d 98 98 9d     ......idhee.....
     3cc:	88 65 66 68 64 69 90 9c 97 98 9c 80 63 67 68 63     .efhdi......cghc
     3dc:	6f 96 9b 97 99 9a 77 62 67 67 62 76 9a 9a 97 9b     o.....wbggbv....
     3ec:	96 70 63 68 67 63 7e 9c 98 97 9c 91 6a 64 68 66     .pchgc~.....jdhf
     3fc:	64 86 9d 98 97 9d 8a 66 65 68 65 68 8e 9c 97 98     d......feheh....
     40c:	9c 82 63 66 68 63 6d 94 9b 97 99 9b 7a 62 67 68     ..cfhcm.....zbgh
     41c:	63 74 99 9a 97 9a 98 72 63 68 67 63 7c 9b 99 97     ct.....rchgc|...
     42c:	9b 93 6c 64 68 66 64 84 9d 98 97 9c 8c 67 65 68     ..ldhfd......geh
     43c:	65 67 8c 9c 97 98 9d 84 64 66 68 64 6c 93 9b 97     eg......dfhdl...
     44c:	99 9b 7c 63 67 68 63 72 98 9a 97 9a 99 74 63 68     ..|cghcr.....tch
     45c:	67 62 7a 9b 99 97 9b 94 6d 63 68 66 63 82 9c 98     gbz.....mchfc...
     46c:	97 9c 8e 68 65 68 65 66 8a 9d 97 98 9d 87 65 66     ...hehef......ef
     47c:	68 64 6a 91 9c 97 98 9c 7e 63 67 68 63 70 96 9b     hdj.....~cghcp..
     48c:	97 9a 9a 76 62 67 67 62 77 9a 99 97 9b 96 6f 63     ...vbggbw.....oc
     49c:	68 67 63 7f 9c 98 97 9c 90 69 64 68 66 65 87 9d     hgc......idhfe..
     4ac:	97 98 9c 88 67 67 6a 66 6a 8e 9a 96 97 9a 81 65     ....ggjfj......e
     4bc:	68 69 65 6f 93 99 95 97 99 79 64 69 69 64 76 97     hieo.....ydiidv.
     4cc:	98 95 99 96 72 65 69 69 65 7d 9a 97 96 9a 91 6c     ....reiie}.....l
     4dc:	66 6a 68 66 85 9b 96 96 9b 8a 68 67 6a 67 69 8c     fjhf......hgjgi.
     4ec:	9a 96 96 9b 83 65 68 69 65 6e 92 99 96 97 99 7b     .....ehien.....{
     4fc:	64 69 69 65 74 96 98 95 98 97 74 64 69 69 64 7b     diiet.....tdiid{
     50c:	99 97 96 99 92 6e 65 69 68 65 83 9b 96 96 9a 8c     .....neihe......
     51c:	69 67 6a 67 68 8a 9b 96 96 9b 85 66 68 6a 66 6c     igjgh......fhjfl
     52c:	90 9a 96 97 9a 7e 65 69 69 65 72 95 99 95 98 98     .....~eiier.....
     53c:	76 64 69 69 64 79 99 98 95 99 94 70 65 69 68 65     vdiidy.....peihe
     54c:	80 9a 97 97 9c 8f 69 64 68 66 65 88 9d 98 98 9d     ......idhfe.....
     55c:	88 65 66 68 64 69 90 9c 97 98 9c 80 63 67 68 63     .efhdi......cghc
     56c:	6f 95 9b 97 99 9a 78 62 67 67 62 76 9a 9a 97 9b     o.....xbggbv....
     57c:	96 70 63 68 67 63 7e 9c 98 97 9c 91 6a 64 68 66     .pchgc~.....jdhf
     58c:	64 86 9d 98 97 9d 8a 66 65 68 65 68 8e 9c 97 98     d......feheh....
     59c:	9c 82 63 66 68 63 6d 94 9b 97 99 9b 7a 62 67 68     ..cfhcm.....zbgh
     5ac:	63 74 99 9a 97 9a 98 72 63 68 67 62 7c 9b 99 97     ct.....rchgb|...
     5bc:	9b 93 6c 64 68 66 64 84 9d 98 97 9c 8c 67 65 68     ..ldhfd......geh
     5cc:	65 67 8c 9c 97 98 9d 85 64 66 68 64 6b 92 9c 97     eg......dfhdk...
     5dc:	99 9c 7c 63 67 68 63 72 97 9a 97 9a 99 74 62 68     ..|cghcr.....tbh
     5ec:	67 62 79 9b 99 97 9b 94 6e 63 68 66 63 81 9c 98     gby.....nchfc...
     5fc:	97 9c 8e 68 65 68 65 66 89 9d 98 98 9d 87 65 66     ...hehef......ef
     60c:	68 64 6a 91 9c 97 98 9c 7f 63 67 68 63 70 96 9b     hdj......cghcp..
     61c:	97 99 9a 77 62 67 67 62 77 9a 99 97 9b 96 6f 63     ...wbggbw.....oc
     62c:	68 67 63 7f 9c 98 97 9c 90 6a 64 68 66 65 87 9d     hgc......jdhfe..
     63c:	98 98 9d 89 65 65 68 64 68 8f 9c 97 98 9c 81 63     ....eehdh......c
     64c:	66 68 63 6e 95 9b 97 99 9b 79 62 67 68 62 75 99     fhcn.....ybghbu.
     65c:	9a 97 9a 97 71 63 68 67 63 7d 9c 99 97 9c 92 6b     ....qchgc}.....k
     66c:	64 68 66 64 85 9d 98 97 9c 8b 66 65 68 65 67 8d     dhfd......feheg.
     67c:	9c 97 98 9d 83 64 66 68 64 6c 93 9b 97 99 9b 7b     .....dfhdl.....{
     68c:	62 67 68 63 73 98 9a 97 9a 98 73 63 68 67 62 7a     bghcs.....schgbz
     69c:	9b 99 97 9b 94 6d 63 68 66 63 83 9c 98 97 9c 8d     .....mchfc......
     6ac:	68 65 68 65 66 8a 9d 97 98 9d 86 64 66 68 64 6a     hehef......dfhdj
     6bc:	91 9c 97 99 9c 7e 63 67 68 63 71 97 9a 97 9a 99     .....~cghcq.....
     6cc:	76 62 67 67 62 78 9a 99 97 9b 95 6f 63 68 67 63     vbggbx.....ochgc
     6dc:	80 9c 98 97 9c 8f 69 64 68 66 65 88 9d 98 98 9d     ......idhfe.....
     6ec:	88 65 66 68 64 69 8f 9c 97 98 9c 80 63 67 68 63     .efhdi......cghc
     6fc:	6f 95 9b 97 99 9a 78 62 67 67 62 76 99 9a 97 9b     o.....xbggbv....
     70c:	97 71 63 68 67 63 7e 9c 99 97 9c 91 6a 64 68 66     .qchgc~.....jdhf
     71c:	64 86 9d 98 97 9d 8a 66 65 68 65 68 8d 9c 97 98     d......feheh....
     72c:	9c 82 63 66 68 63 6d 94 9b 97 99 9b 7a 62 67 68     ..cfhcm.....zbgh
     73c:	63 74 98 9a 97 9a 98 73 63 68 67 62 7b 9b 99 97     ct.....schgb{...
     74c:	9c 93 6c 63 68 66 64 85 9d 98 97 9d 8a 66 65 68     ..lchfd......feh
     75c:	64 6a 8f 9c 97 99 9b 7d 62 67 68 62 75 98 9a 96     dj.....}bghbu...
     76c:	9c 95 6f 62 69 66 64 85 9d 98 98 9d 86 65 65 69     ..obifd......eei
     77c:	62 6f 95 9c 96 9b 97 73 62 69 66 64 83 9d 98 97     bo.....sbifd....
     78c:	9d 85 65 65 69 62 72 96 9b 95 9c 93 6f 62 69 64     ..eeibr.....obid
     79c:	67 8a 9d 96 99 9b 7c 62 68 67 62 7d 9c 99 97 9d     g.....|bhgb}....
     7ac:	88 66 65 69 62 73 97 9b 95 9d 90 6c 63 6a 63 6c     .feibs.....lcjcl
     7bc:	90 9d 95 9c 96 72 62 6a 64 67 8a 9e 96 9a 99 77     .....rbjdg.....w
     7cc:	61 69 65 65 86 9e 96 99 9b 7a 62 68 66 64 84 9d     aiee.....zbhfd..
     7dc:	97 99 9b 7c 62 68 66 64 83 9d 97 99 9b 7b 62 68     ...|bhfd.....{bh
     7ec:	66 64 85 9e 96 99 9a 79 61 69 65 66 88 9e 96 9b     fd.....yaief....
     7fc:	98 74 61 6a 64 69 8e 9d 95 9c 94 6e 62 6a 62 6e     .tajdi.....nbjbn
     80c:	94 9c 95 9d 8d 68 64 69 61 77 9a 99 97 9d 82 63     .....hdiaw.....c
     81c:	67 67 63 83 9d 96 9a 99 76 61 6a 64 6a 90 9d 95     ggc.....vajdj...
     82c:	9d 8f 69 64 6a 61 77 9a 99 97 9d 7f 62 68 66 65     ..idjaw.....bhfe
     83c:	89 9e 95 9c 94 6e 63 6a 62 73 98 9a 96 9d 81 62     .....ncjbs.....b
     84c:	68 66 65 89 9e 95 9c 93 6c 63 6a 61 77 9a 99 97     hfe.....lcjaw...
     85c:	9c 7c 61 69 64 69 90 9d 95 9d 8b 66 66 68 62 82     .|aidi.....ffhb.
     86c:	9d 96 9b 96 6f 62 6a 61 75 9a 99 97 9c 7a 61 6a     ....objau....zaj
     87c:	63 6c 93 9c 95 9e 84 63 68 66 66 8c 9d 95 9d 8c     cl.....chff.....
     88c:	66 66 68 63 85 9e 95 9c 92 6a 64 69 62 80 9d 96     ffhc.....jdib...
     89c:	9b 95 6d 63 6a 61 7c 9d 97 9a 97 6f 63 6a 61 7a     ..mcja|....ocjaz
     8ac:	9c 97 9a 97 70 62 6a 61 7a 9c 97 9a 97 6f 63 6a     ....pbjaz....ocj
     8bc:	61 7c 9d 96 9b 95 6d 63 69 62 7f 9d 96 9c 92 69     a|....mcib.....i
     8cc:	65 68 63 85 9e 95 9d 8d 66 67 67 65 8c 9d 95 9e     ehc.....fgge....
     8dc:	85 63 69 64 6b 94 9b 96 9d 7b 61 6a 62 73 9a 98     .cidk....{ajbs..
     8ec:	99 98 70 63 6a 62 80 9e 95 9c 8e 66 66 67 66 8e     ..pcjb.....ffgf.
     8fc:	9c 95 9e 7f 61 6a 62 71 99 98 99 98 6f 63 69 62     ....ajbq....ocib
     90c:	83 9e 95 9d 89 63 68 65 6b 95 9a 97 9b 74 62 6a     .....chek....tbj
     91c:	61 7f 9e 95 9d 8c 64 68 65 6a 94 9a 97 9b 74 62     a.....dhej....tb
     92c:	6a 62 81 9e 95 9d 88 63 69 64 6e 98 98 99 97 6d     jb.....cidn....m
     93c:	64 68 64 8a 9d 95 9d 7d 61 6a 61 7a 9d 96 9c 8c     dhd....}ajaz....
     94c:	64 68 64 6c 97 99 99 97 6c 64 68 64 8d 9c 96 9d     dhdl....ldhd....
     95c:	77 62 6a 62 82 9e 95 9e 82 62 6a 62 78 9d 96 9c     wbjb.....bjbx...
     96c:	8b 64 69 63 70 9a 97 9b 92 67 67 65 6b 96 99 99     .dicp....ggek...
     97c:	96 6b 65 67 67 93 9a 98 99 6e 64 68 65 90 9b 97     .kegg....ndhe...
     98c:	9a 70 64 68 64 8e 9c 97 9b 71 63 68 64 8e 9c 97     .pdhd....qchd...
     99c:	9b 71 64 68 65 8f 9b 97 9a 6f 64 68 66 92 9a 98     .qdhe....odhf...
     9ac:	98 6c 65 67 68 95 99 99 95 68 67 65 6d 99 97 9b     .legh....hgem...
     9bc:	8f 65 69 63 73 9c 96 9d 88 62 6a 62 7c 9e 95 9e     .eics....bjb|...
     9cc:	7e 61 6a 62 87 9d 96 9c 72 64 68 66 92 9a 99 95     ~ajb....rdhf....
     9dc:	68 67 64 6f 9b 96 9c 89 62 6a 61 7e 9e 95 9d 78     hgdo....bja~...x
     9ec:	62 69 64 8f 9b 98 97 69 67 64 70 9b 96 9d 86 61     bid....igdp....a
     9fc:	6a 61 84 9d 96 9c 71 64 67 69 97 98 9b 8d 63 6a     ja....qdgi....cj
     a0c:	62 7d 9e 95 9d 75 63 68 67 95 98 9a 8f 63 6a 62     b}...uchg....cjb
     a1c:	7d 9e 95 9d 74 64 68 68 97 97 9b 8b 62 6a 61 83     }...tdhh....bja.
     a2c:	9d 96 9b 6d 66 65 6f 9b 95 9d 81 61 6a 63 8f 9a     ...mfeo....ajc..
     a3c:	99 93 65 69 62 7d 9e 95 9c 71 65 66 6d 9a 96 9d     ..eib}...qefm...
     a4c:	81 62 6a 64 91 99 9a 8f 63 6a 61 83 9d 97 99 6a     .bjd....cja....j
     a5c:	67 63 76 9d 95 9d 74 64 66 6c 9a 96 9d 7f 62 69     gcv...tdfl....bi
     a6c:	65 93 98 9b 8b 62 6a 62 89 9b 98 94 66 69 62 7e     e....bjb....fib~
     a7c:	9d 96 9b 6d 66 64 72 9d 95 9d 78 63 67 69 98 97     ...mfdr...xcgi..
     a8c:	9d 83 62 6a 63 90 9a 9a 8e 63 6a 62 85 9c 97 97     ..bjc....cjb....
     a9c:	68 68 63 79 9d 95 9c 71 65 66 6f 9b 95 9d 7c 62     hhcy...qefo...|b
     aac:	68 67 96 98 9c 88 62 6a 62 8c 9b 99 92 64 69 62     hg....bjb....dib
     abc:	81 9d 96 99 6b 67 64 75 9d 95 9d 75 64 67 6b 9a     ....kgdu...udgk.
     acc:	96 9d 80 62 69 65 93 99 9b 8c 62 6a 62 88 9c 98     ...bie....bjb...
     adc:	95 66 69 62 7d 9d 96 9b 6e 66 65 72 9c 95 9d 79     .fib}...nfer...y
     aec:	63 68 69 98 97 9d 84 62 6a 63 8f 9a 9a 8f 63 6a     chi....bjc....cj
     afc:	62 84 9d 97 98 69 68 63 79 9d 95 9c 72 65 66 6e     b....ihcy...refn
     b0c:	9b 96 9d 7d 62 69 66 95 98 9c 88 62 6a 62 8c 9b     ...}bif....bjb..
     b1c:	99 93 65 69 62 80 9d 96 9a 6b 67 64 75 9d 95 9d     ..eib....kgdu...
     b2c:	75 64 67 6b 99 96 9d 81 62 69 64 92 99 9b 8c 62     udgk....bid....b
     b3c:	6a 62 88 9c 98 96 67 68 62 7c 9d 95 9b 6f 66 65     jb....ghb|...ofe
     b4c:	71 9c 95 9d 79 63 68 68 97 97 9c 85 62 6a 63 8f     q...ychh....bjc.
     b5c:	9a 9a 90 63 6a 62 83 9d 97 98 69 67 63 78 9d 95     ...cjb....igcx..
     b6c:	9d 72 64 66 6d 9b 96 9d 7e 62 69 66 94 98 9b 89     .rdfm...~bif....
     b7c:	62 6a 62 8b 9b 98 93 65 69 62 7f 9d 96 9a 6c 66     bjb....eib....lf
     b8c:	64 74 9d 95 9d 76 63 67 6a 99 96 9d 82 62 69 64     dt...vcgj....bid
     b9c:	91 99 9a 8d 63 6a 62 87 9c 97 96 67 68 62 7b 9d     ....cjb....ghb{.
     bac:	95 9c 6f 65 65 70 9c 95 9d 7a 63 68 68 97 97 9c     ..oeep...zchh...
     bbc:	86 62 6a 63 8e 9a 99 91 64 69 62 83 9d 96 99 6a     .bjc....dib....j
     bcc:	67 63 77 9d 95 9d 73 64 66 6d 9a 96 9d 7f 62 69     gcw...sdfm....bi
     bdc:	65 94 98 9b 8a 62 6a 62 8a 9b 98 94 65 69 62 7e     e....bjb....eib~
     bec:	9d 96 9b 6d 66 64 73 9d 95 9d 77 63 67 6a 98 97     ...mfds...wcgj..
     bfc:	9d 83 62 69 64 91 99 9a 8e 63 6a 62 86 9c 97 97     ..bid....cjb....
     c0c:	68 68 63 7a 9d 95 9c 70 65 65 6f 9c 95 9d 7b 62     hhcz...peeo...{b
     c1c:	68 67 96 97 9c 87 62 6a 63 8d 9a 99 91 64 69 62     hg....bjc....dib
     c2c:	82 9d 96 99 6a 67 63 76 9d 95 9d 74 64 66 6c 9a     ....jgcv...tdfl.
     c3c:	96 9d 7f 62 69 65 93 98 9b 8b 62 6a 62 89 9c 98     ...bie....bjb...
     c4c:	95 66 69 62 7d 9d 96 9b 6d 66 64 72 9d 95 9d 78     .fib}...mfdr...x
     c5c:	63 68 69 98 97 9d 84 62 6a 63 90 9a 9a 8f 63 6a     chi....bjc....cj
     c6c:	62 85 9c 97 97 68 68 63 79 9d 95 9c 71 65 66 6f     b....hhcy...qefo
     c7c:	9b 95 9d 7c 62 68 67 95 98 9c 88 62 6a 62 8c 9b     ...|bhg....bjb..
     c8c:	99 92 64 69 62 81 9d 96 99 6b 67 64 75 9d 95 9d     ..dib....kgdu...
     c9c:	75 64 67 6b 9a 96 9d 80 62 69 65 92 99 9b 8c 62     udgk....bie....b
     cac:	6a 62 88 9c 98 95 66 69 62 7d 9d 96 9b 6e 66 65     jb....fib}...nfe
     cbc:	71 9c 95 9d 79 63 68 68 97 97 9c 85 62 6a 63 8f     q...ychh....bjc.
     ccc:	9a 9a 8f 63 6a 62 84 9d 97 98 69 68 63 78 9d 95     ...cjb....ihcx..
     cdc:	9c 72 65 66 6e 9b 96 9d 7d 62 69 66 95 98 9c 89     .refn...}bif....
     cec:	62 6a 62 8b 9b 99 93 65 69 62 80 9d 96 9a 6c 67     bjb....eib....lg
     cfc:	64 74 9d 95 9d 76 64 67 6b 99 96 9d 81 62 69 64     dt...vdgk....bid
     d0c:	92 99 9b 8d 62 6a 62 87 9c 98 96 67 68 62 7c 9d     ....bjb....ghb|.
     d1c:	95 9b 6f 65 65 71 9c 95 9d 7a 63 68 68 97 97 9c     ..oeeq...zchh...
     d2c:	85 62 6a 63 8e 9a 99 90 64 6a 62 83 9d 97 98 69     .bjc....djb....i
     d3c:	67 63 77 9d 95 9d 73 64 66 6d 9b 96 9d 7e 62 69     gcw...sdfm...~bi
     d4c:	66 94 98 9b 8a 62 6a 62 8b 9b 98 93 65 69 62 7f     f....bjb....eib.
     d5c:	9d 96 9a 6c 66 64 74 9d 95 9d 76 63 67 6a 99 96     ...lfdt...vcgj..
     d6c:	9d 82 62 69 64 91 99 9a 8d 63 6a 62 86 9c 97 96     ..bid....cjb....
     d7c:	67 68 62 7b 9d 95 9c 70 65 65 70 9c 95 9d 7b 62     ghb{...peep...{b
     d8c:	68 67 96 97 9c 86 62 6a 63 8e 9a 99 91 64 69 62     hg....bjc....dib
     d9c:	82 9d 96 99 6a 67 63 77 9d 95 9d 73 64 66 6c 9a     ....jgcw...sdfl.
     dac:	96 9d 7f 62 69 65 94 98 9b 8a 62 6a 62 8a 9b 98     ...bie....bjb...
     dbc:	94 66 69 62 7e 9d 96 9b 6d 66 64 73 9d 95 9d 77     .fib~...mfds...w
     dcc:	63 67 69 98 97 9d 83 62 6a 64 90 99 9a 8e 63 6a     cgi....bjd....cj
     ddc:	62 86 9c 97 97 68 68 63 7a 9d 95 9c 70 65 65 6f     b....hhcz...peeo
     dec:	9c 95 9d 7b 62 68 67 96 97 9c 87 62 6a 63 8d 9a     ...{bhg....bjc..
     dfc:	9a 8f 6a 73 64 68 91 9b 96 9d 86 63 68 66 66 8d     ..jsdh.....chff.
     e0c:	9d 95 9e 89 65 67 67 65 89 9e 95 9d 8d 66 66 68     ....egge.....ffh
     e1c:	63 85 9e 95 9c 90 69 65 69 62 81 9d 96 9b 94 6c     c.....ieib.....l
     e2c:	64 69 62 7d 9d 96 9a 96 6f 63 6a 61 79 9c 97 99     dib}....ocjay...
     e3c:	99 72 62 6a 61 76 9a 98 98 9a 76 61 6a 62 72 99     .rbjav....vajbr.
     e4c:	99 97 9c 7a 63 6b 65 70 95 99 95 9b 7e 64 6b 65     ...zckep....~dke
     e5c:	6d 92 9a 94 9b 81 64 6a 66 6a 8f 9a 94 9c 85 65     m.....djfj.....e
     e6c:	69 67 68 8c 9b 93 9c 89 66 68 68 66 89 9c 93 9b     igh.....fhhf....
     e7c:	8c 68 67 69 65 85 9c 94 9a 8f 6a 66 6a 64 81 9b     .hgie.....jfjd..
     e8c:	94 9a 92 6d 65 6b 64 7e 9b 95 99 95 70 65 6b 63     ...mekd~....pekc
     e9c:	7a 9a 96 98 97 73 64 6c 63 76 99 97 97 99 76 63     z....sdlcv....vc
     eac:	6c 64 73 97 98 96 9a 7a 63 6b 65 70 95 99 95 9b     lds....zckep....
     ebc:	7e 64 6b 65 6d 92 9a 94 9b 81 64 6a 66 6a 8f 9a     ~dkem.....djfj..
     ecc:	94 9c 85 65 69 67 68 8c 9b 93 9c 89 66 68 68 66     ...eigh.....fhhf
     edc:	89 9c 93 9b 8c 68 67 69 65 85 9c 94 9a 8f 6a 66     .....hgie.....jf
     eec:	6a 64 81 9b 94 9a 92 6d 65 6b 64 7e 9b 95 99 95     jd.....mekd~....
     efc:	70 65 6b 63 7a 9a 96 98 97 73 64 6c 63 76 99 97     pekcz....sdlcv..
     f0c:	97 99 76 63 6c 64 73 97 98 96 9a 7a 63 6b 65 70     ..vclds....zckep
     f1c:	95 99 95 9b 7e 64 6b 65 6d 92 9a 94 9b 81 64 6a     ....~dkem.....dj
     f2c:	66 6a 8f 9a 94 9c 85 65 69 67 68 8c 9b 93 9c 89     fj.....eigh.....
     f3c:	66 68 68 66 89 9c 93 9b 8c 68 67 69 65 85 9c 94     fhhf.....hgie...
     f4c:	9a 8f 6a 66 6a 64 81 9b 94 9a 92 6d 65 6b 64 7e     ..jfjd.....mekd~
     f5c:	9b 95 99 95 70 65 6b 63 7a 9a 96 98 97 73 64 6c     ....pekcz....sdl
     f6c:	63 76 99 97 97 99 76 63 6c 64 73 97 98 96 9a 7a     cv....vclds....z
     f7c:	63 6b 65 70 95 99 95 9b 7e 64 6b 65 6d 92 9a 94     ckep....~dkem...
     f8c:	9c 81 64 6a 65 69 90 9c 95 9e 86 63 68 66 66 8d     ..djei.....chff.
     f9c:	9d 95 9e 89 65 67 67 65 89 9e 95 9d 8d 66 66 68     ....egge.....ffh
     fac:	63 85 9e 95 9c 90 69 65 69 62 81 9d 96 9b 94 6c     c.....ieib.....l
     fbc:	64 69 62 7d 9d 96 9a 96 6f 63 6a 61 79 9c 97 99     dib}....ocjay...
     fcc:	99 72 62 6a 61 76 9a 98 98 9a 76 61 6a 62 72 99     .rbjav....vajbr.
     fdc:	99 97 9c 7a 61 6a 63 6f 96 9a 96 9d 7e 62 69 64     ...zajco....~bid
     fec:	6b 93 9b 96 9d 82 62 69 65 69 90 9c 95 9e 86 63     k.....biei.....c
     ffc:	68 66 66 8d 9d 95 9e 89 65 67 67 65 89 9e 95 9d     hff.....egge....
    100c:	8d 66 66 68 63 85 9e 95 9c 90 69 65 69 62 81 9d     .ffhc.....ieib..
    101c:	96 9b 94 6c 64 69 62 7d 9d 96 9a 96 6f 63 6a 61     ...ldib}....ocja
    102c:	79 9c 97 99 99 72 62 6a 61 76 9a 98 98 9a 76 61     y....rbjav....va
    103c:	6a 62 72 99 99 97 9c 7a 61 6a 63 6f 96 9a 96 9d     jbr....zajco....
    104c:	7e 62 69 64 6b 93 9b 96 9d 82 62 69 65 69 90 9c     ~bidk.....biei..
    105c:	95 9e 86 63 68 66 66 8d 9d 95 9e 89 65 67 67 65     ...chff.....egge
    106c:	89 9e 95 9d 8d 66 66 68 63 85 9e 95 9c 90 69 65     .....ffhc.....ie
    107c:	69 62 81 9d 96 9b 94 6c 64 69 62 7d 9d 96 9a 96     ib.....ldib}....
    108c:	6f 63 6a 61 79 9c 97 99 99 72 62 6a 61 76 9a 98     ocjay....rbjav..
    109c:	98 9a 76 61 6a 62 72 99 99 97 9c 7a 61 6a 63 6f     ..vajbr....zajco
    10ac:	96 9a 96 9d 7e 62 69 64 6b 93 9b 96 9d 82 62 69     ....~bidk.....bi
    10bc:	65 69 90 9c 95 9e 86 63 68 66 66 8d 9d 95 9e 89     ei.....chff.....
    10cc:	65 67 67 65 89 9e 95 9d 8d 66 66 68 63 85 9e 95     egge.....ffhc...
    10dc:	9c 90 69 65 69 62 81 9d 96 9b 94 6c 64 69 62 7d     ..ieib.....ldib}
    10ec:	9d 96 9a 96 6f 63 6a 61 79 9c 97 99 99 72 62 6a     ....ocjay....rbj
    10fc:	61 76 9a 98 98 9a 76 61 6a 62 72 99 99 97 9c 7a     av....vajbr....z
    110c:	61 6a 63 6f 96 9a 96 9d 7e 62 69 64 6b 93 9b 96     ajco....~bidk...
    111c:	9d 82 62 69 65 69 90 9c 95 9e 86 63 68 66 66 8d     ..biei.....chff.
    112c:	9d 95 9e 89 65 67 67 65 89 9e 95 9d 8d 66 66 68     ....egge.....ffh
    113c:	63 85 9e 95 9c 90 69 65 69 62 81 9d 96 9b 94 6c     c.....ieib.....l
    114c:	64 69 62 7d 9d 96 9a 96 6f 63 6a 61 79 9c 97 99     dib}....ocjay...
    115c:	99 72 62 6a 61 76 9a 98 98 9a 76 61 6a 62 72 99     .rbjav....vajbr.
    116c:	99 97 9c 7a 61 6a 63 6f 96 9a 96 9d 7e 62 69 64     ...zajco....~bid
    117c:	6b 93 9b 96 9d 82 62 69 65 69 90 9c 95 9e 86 63     k.....biei.....c
    118c:	68 66 66 8d 9d 95 9e 89 65 67 67 65 89 9e 95 9d     hff.....egge....
    119c:	8d 66 66 68 63 85 9e 95 9c 90 69 65 69 62 81 9d     .ffhc.....ieib..
    11ac:	96 9b 94 6c 64 69 62 7d 9d 96 9a 96 6f 63 6a 61     ...ldib}....ocja
    11bc:	79 9c 97 99 99 72 62 6a 61 76 9a 98 98 9a 76 61     y....rbjav....va
    11cc:	6a 62 72 99 99 97 9c 7a 61 6a 63 6f 96 9a 96 9d     jbr....zajco....
    11dc:	7e 62 69 64 6b 93 9b 96 9d 82 62 69 65 69 90 9c     ~bidk.....biei..
    11ec:	95 9e 86 63 68 66 66 8d 9d 95 9e 89 65 67 67 65     ...chff.....egge
    11fc:	89 9e 95 9d 8d 66 66 68 63 85 9e 95 9c 90 69 65     .....ffhc.....ie
    120c:	69 62 82 9d 94 9a 92 6d 65 6b 64 7e 9b 95 99 95     ib.....mekd~....
    121c:	70 65 6b 63 7a 9a 96 98 97 73 64 6c 63 76 99 97     pekcz....sdlcv..
    122c:	97 99 76 63 6c 64 73 97 98 96 9a 7a 63 6b 65 70     ..vclds....zckep
    123c:	95 99 95 9b 7e 64 6b 65 6d 92 9a 94 9b 81 64 6a     ....~dkem.....dj
    124c:	66 6a 8f 9a 94 9c 85 65 69 67 68 8c 9b 93 9c 89     fj.....eigh.....
    125c:	66 68 68 66 89 9c 93 9b 8c 68 67 69 65 85 9c 94     fhhf.....hgie...
    126c:	9a 8f 6a 66 6a 64 81 9b 94 9a 92 6d 65 6b 64 7e     ..jfjd.....mekd~
    127c:	9b 95 99 95 70 65 6b 63 7a 9a 96 98 97 73 64 6c     ....pekcz....sdl
    128c:	63 76 99 97 97 99 76 63 6c 64 73 97 98 96 9a 7a     cv....vclds....z
    129c:	63 6b 65 70 95 99 95 9b 7e 64 6b 65 6d 92 9a 94     ckep....~dkem...
    12ac:	9c 81 64 6a 65 69 90 9c 95 9e 86 63 68 66 66 8d     ..djei.....chff.
    12bc:	9d 95 9e 89 65 67 67 65 89 9e 95 9d 8d 66 66 68     ....egge.....ffh
    12cc:	63 85 9e 95 9c 90 69 65 69 62 81 9d 96 9b 94 6c     c.....ieib.....l
    12dc:	64 69 62 7d 9d 96 9a 96 6f 63 6a 61 79 9c 97 99     dib}....ocjay...
    12ec:	99 72 62 6a 61 76 9a 98 98 9a 76 61 6a 62 72 99     .rbjav....vajbr.
    12fc:	99 97 9c 7a 61 6a 63 6f 96 9a 96 9d 7e 62 69 64     ...zajco....~bid
    130c:	6b 93 9b 96 9d 82 62 69 65 69 90 9c 95 9e 86 63     k.....biei.....c
    131c:	68 66 66 8d 9d 95 9e 89 65 67 67 65 89 9e 95 9d     hff.....egge....
    132c:	8d 66 66 68 63 85 9e 95 9c 90 69 65 69 62 81 9d     .ffhc.....ieib..
    133c:	96 9b 94 6c 64 69 62 7d 9d 96 9a 96 6f 63 6a 61     ...ldib}....ocja
    134c:	79 9c 97 99 99 72 62 6a 61 76 9a 98 98 9a 76 61     y....rbjav....va
    135c:	6a 62 72 99 99 97 9c 7a 61 6a 63 6f 96 9a 96 9d     jbr....zajco....
    136c:	7e 62 69 64 6b 93 9b 96 9d 82 62 69 65 69 90 9c     ~bidk.....biei..
    137c:	95 9e 86 63 68 66 66 8d 9d 95 9e 89 65 67 67 65     ...chff.....egge
    138c:	89 9e 95 9d 8d 66 66 68 63 85 9e 95 9c 90 69 65     .....ffhc.....ie
    139c:	69 62 81 9d 96 9b 94 6c 64 69 62 7d 9d 96 9a 96     ib.....ldib}....
    13ac:	6f 63 6a 61 79 9c 97 99 99 72 62 6a 61 76 9a 98     ocjay....rbjav..
    13bc:	98 9a 76 61 6a 62 72 99 99 97 9c 7a 61 6a 63 6f     ..vajbr....zajco
    13cc:	96 9a 96 9d 7e 62 69 64 6b 93 9b 96 9d 82 62 69     ....~bidk.....bi
    13dc:	65 69 90 9c 95 9e 86 63 68 66 66 8d 9d 95 9e 89     ei.....chff.....
    13ec:	65 67 67 65 89 9e 95 9d 8d 66 66 68 63 85 9e 95     egge.....ffhc...
    13fc:	9c 90 69 65 69 62 81 9d 96 9b 94 6c 64 69 62 7d     ..ieib.....ldib}
    140c:	9d 96 9a 96 6f 63 6a 61 79 9c 97 99 99 72 62 6a     ....ocjay....rbj
    141c:	61 76 9a 98 98 9a 76 61 6a 62 72 99 99 97 9c 7a     av....vajbr....z
    142c:	61 6a 63 6f 96 9a 96 9d 7e 62 69 64 6b 93 9b 96     ajco....~bidk...
    143c:	9d 82 62 69 65 69 90 9c 95 9e 86 63 68 66 66 8d     ..biei.....chff.
    144c:	9d 95 9e 89 65 67 67 65 89 9e 95 9d 8d 66 66 68     ....egge.....ffh
    145c:	63 85 9e 95 9c 90 69 65 69 62 81 9d 96 9b 94 6c     c.....ieib.....l
    146c:	64 69 62 7d 9d 96 9a 96 6f 63 6a 61 79 9c 97 99     dib}....ocjay...
    147c:	99 72 62 6a 61 76 9a 98 98 9a 76 61 6a 62 72 99     .rbjav....vajbr.
    148c:	99 97 9c 7a 61 6a 63 6f 96 9a 96 9d 7e 62 69 64     ...zajco....~bid
    149c:	6b 93 9b 96 9d 82 62 69 65 69 90 9c 95 9e 85 63     k.....biei.....c
    14ac:	68 66 67 8d 9d 95 9e 88 64 67 66 66 8c 9d 95 9d     hfg.....dgff....
    14bc:	89 64 67 66 65 8c 9d 95 9e 89 64 67 66 66 8d 9d     .dgfe.....dgff..
    14cc:	95 9e 86 63 68 65 68 90 9c 95 9e 82 62 69 64 6c     ...cheh.....bidl
    14dc:	94 9b 96 9d 7b 61 6a 62 71 99 99 98 9a 74 62 6a     ....{ajbq....tbj
    14ec:	61 7a 9c 96 9b 94 6b 64 69 62 85 9e 95 9d 8b 64     az....kdib.....d
    14fc:	67 66 68 90 9c 96 9d 7d 61 6a 62 72 9a 98 99 98     gfh....}ajbr....
    150c:	6f 63 69 62 82 9e 95 9d 8b 64 68 65 69 93 9b 96     ocib.....dhei...
    151c:	9c 78 62 6a 61 7a 9d 96 9c 91 67 66 67 66 8f 9c     .xbjaz....gfgf..
    152c:	96 9d 7b 61 6a 62 79 9d 96 9c 90 67 66 66 67 91     ..{ajby....gffg.
    153c:	9b 96 9c 77 62 6a 61 7e 9e 95 9d 8a 63 68 64 6d     ...wbja~....chdm
    154c:	98 99 99 98 6d 64 68 64 8b 9d 95 9d 7c 61 6a 61     ....mdhd....|aja
    155c:	7c 9d 95 9d 8a 63 69 64 6f 99 98 9a 95 69 66 67     |....cido....ifg
    156c:	67 91 9b 97 9b 72 63 69 63 88 9d 95 9d 7b 61 6a     g....rcic....{aj
    157c:	61 80 9e 95 9e 83 62 6a 62 79 9d 95 9d 89 63 69     a.....bjby....ci
    158c:	63 74 9c 96 9c 8d 64 69 63 70 9a 97 9b 90 65 68     ct....dicp....eh
    159c:	64 6f 99 97 9b 91 66 68 64 6e 99 97 9b 91 66 68     do....fhdn....fh
    15ac:	64 6f 9a 97 9b 8f 65 68 63 71 9b 96 9c 8c 63 69     do....ehcq....ci
    15bc:	63 75 9c 95 9d 87 62 6a 62 7b 9d 95 9e 80 61 6a     cu....bjb{....aj
    15cc:	61 83 9d 95 9d 78 62 69 63 8c 9c 97 9a 6f 65 67     a....xbic....oeg
    15dc:	68 95 99 99 93 67 68 64 71 9b 96 9d 88 62 6a 61     h....ghdq....bja
    15ec:	7e 9e 95 9d 79 62 69 63 8e 9b 97 98 6a 66 65 6d     ~...ybic....jfem
    15fc:	9a 97 9c 8a 62 6a 61 7f 9e 95 9d 76 63 69 65 92     ....bja....vcie.
    160c:	9a 99 93 66 68 63 75 9d 95 9e 7e 62 6a 63 8d 9b     ...fhcu...~bjc..
    161c:	98 97 69 67 64 72 9c 95 9e 80 61 6a 62 8c 9b 98     ..igdr....ajb...
    162c:	96 68 68 63 74 9d 95 9e 7c 62 69 64 91 99 9a 91     .hhct...|bid....
    163c:	64 69 62 7d 9e 95 9c 72 64 67 6b 99 96 9d 85 61     dib}...rdgk....a
    164c:	6a 62 8b 9b 98 95 66 69 62 7a 9e 95 9d 72 64 66     jb....fibz...rdf
    165c:	6c 9a 96 9d 81 62 69 64 91 99 9a 8e 63 6a 61 85     l....bid....cja.
    166c:	9c 97 97 68 68 63 79 9d 95 9c 70 65 65 70 9c 95     ...hhcy...peep..
    167c:	9d 79 63 67 69 98 97 9d 81 62 69 65 94 98 9c 88     .ycgi....bie....
    168c:	62 69 63 8f 9a 9a 8d 63 69 62 8b 9b 99 90 64 69     bic....cib....di
    169c:	62 88 9b 99 92 65 69 62 86 9c 99 92 65 69 62 86     b....eib....eib.
    16ac:	9c 99 92 65 68 62 87 9b 99 91 65 68 63 89 9b 9a     ...ehb....ehc...
    16bc:	8e 64 68 63 8c 9a 9b 8a 63 68 65 90 99 9c 85 63     .dhc....che....c
    16cc:	67 68 94 98 9c 7f 63 66 6c 98 98 9c 77 64 65 73     gh....cfl...wdes
    16dc:	9b 98 99 6f 65 63 7d 9c 99 94 69 67 64 87 9b 9b     ...oec}...igd...
    16ec:	8b 65 67 67 91 9a 9c 7f 64 65 6f 98 99 99 73 65     .egg....deo...se
    16fc:	64 7c 9b 9a 92 69 66 65 8a 9b 9b 85 64 65 6d 95     d|...ife....dem.
    170c:	9a 9a 75 64 64 7b 9b 9a 91 69 65 66 8b 9b 9b 81     ..udd{...ief....
    171c:	64 64 72 97 9b 96 70 64 65 83 9b 9b 88 66 64 6d     ddr...pde....fdm
    172c:	93 9b 98 75 64 64 7f 9b 9c 8b 68 63 6c 91 9c 98     ...udd....hcl...
    173c:	77 63 64 7e 9a 9c 8a 68 63 6d 92 9c 97 75 63 65     wcd~...hcm...uce
    174c:	81 9b 9c 87 67 63 71 94 9d 94 71 62 67 87 9c 9b     ....gcq...qbg...
    175c:	80 64 63 78 98 9d 8d 6b 62 6d 8f 9d 96 76 62 66     .dcx...kbm...vbf
    176c:	83 9c 9b 83 65 62 77 97 9e 8d 6c 61 6d 8f 9e 95     ....ebw...lam...
    177c:	75 61 67 85 9d 9a 7f 64 63 7c 99 9d 88 68 61 73     uag....dc|...has
    178c:	94 9e 8f 6e 60 6d 8d 9f 95 75 61 68 87 9d 99 7c     ...n`m...uah...|
    179c:	63 65 80 9b 9c 82 65 62 7a 98 9e 87 68 61 76 95     ce....ebz...hav.
    17ac:	9f 8c 6c 60 72 91 9f 8f 6f 60 6e 8e 9f 92 72 60     ..l`r...o`n...r`
    17bc:	6c 8b 9f 94 75 60 6a 89 9f 96 77 61 68 87 9e 97     l...u`j...wah...
    17cc:	79 61 67 85 9d 99 7b 62 66 83 9c 9a 7e 63 64 80     yag...{bf...~cd.
    17dc:	9b 9b 80 64 63 7e 9a 9c 82 65 62 7c 99 9d 84 67     ...dc~...eb|...g
    17ec:	62 7a 98 9e 87 68 61 77 96 9e 89 6a 60 75 94 9f     bz...haw...j`u..
    17fc:	8b 6b 60 73 93 9f 8d 6d 60 71 91 9f 8f 6f 60 6f     .k`s...m`q...o`o
    180c:	8f 9f 91 71 60 6d 8d 9f 93 73 60 6b 8b 9f 94 75     ...q`m...s`k...u
    181c:	60 6a 89 9e 96 77 61 68 87 9e 98 7a 62 67 84 9d     `j...wah...zbg..
    182c:	99 7c 62 65 82 9c 9a 7e 63 64 80 9b 9b 80 64 63     .|be...~cd....dc
    183c:	7e 9a 9c 83 66 62 7b 99 9d 85 67 61 79 97 9e 87     ~...fb{...gay...
    184c:	68 61 77 96 9f 89 6a 60 75 94 9f 8b 6c 60 73 92     haw...j`u...l`s.
    185c:	9f 8d 6e 60 71 91 9f 8f 6f 60 6f 8f 9f 91 71 60     ..n`q...o`o...q`
    186c:	6d 8d 9f 93 73 60 6b 8b 9f 95 76 60 69 88 9e 96     m...s`k...v`i...
    187c:	78 61 68 86 9e 98 7a 62 66 84 9d 99 7c 62 65 82     xah...zbf...|be.
    188c:	9c 9a 7e 63 64 7f 9b 9c 81 65 63 7d 9a 9d 83 66     ..~cd....ec}...f
    189c:	62 7b 99 9d 85 67 61 79 97 9e 87 69 61 77 96 9f     b{...gay...iaw..
    18ac:	8a 6a 60 74 94 9f 8c 6c 60 72 92 9f 8e 6e 60 70     .j`t...l`r...n`p
    18bc:	90 9f 90 70 60 6e 8e 9f 92 72 60 6d 8c 9f 93 74     ...p`n...r`m...t
    18cc:	60 6b 8a 9f 95 76 60 69 88 9e 97 78 61 68 86 9e     `k...v`i...xah..
    18dc:	98 7a 62 66 84 9d 99 7d 63 65 81 9c 9b 7f 64 64     .zbf...}ce....dd
    18ec:	7f 9b 9c 81 65 63 7d 9a 9d 83 66 62 7b 98 9e 86     ....ec}...fb{...
    18fc:	67 61 78 97 9e 88 69 61 76 95 9f 8a 6b 60 74 94     gax...iav...k`t.
    190c:	9f 8c 6c 60 72 92 9f 8e 6e 60 70 90 9f 90 70 60     ..l`r...n`p...p`
    191c:	6e 8e 9f 92 72 60 6c 8c 9f 94 74 60 6a 8a 9f 95     n...r`l...t`j...
    192c:	76 61 69 88 9e 97 78 61 67 85 9d 98 7b 62 66 83     vai...xag...{bf.
    193c:	9d 9a 7d 63 65 81 9c 9b 7f 64 64 7f 9b 9c 81 65     ..}ce....dd....e
    194c:	63 7c 99 9d 84 66 62 7a 98 9e 86 68 61 78 97 9e     c|...fbz...hax..
    195c:	88 69 60 76 95 9f 8a 6b 60 74 93 9f 8c 6d 60 72     .i`v...k`t...m`r
    196c:	91 9f 8e 6e 60 70 90 9f 90 70 60 6e 8e 9f 92 72     ...n`p...p`n...r
    197c:	60 6c 8c 9f 94 75 60 6a 89 9f 96 77 61 69 87 9e     `l...u`j...wai..
    198c:	97 79 61 67 85 9d 99 7b 62 66 83 9d 9a 7d 63 65     .yag...{bf...}ce
    199c:	81 9c 9b 80 64 63 7e 9a 9c 82 65 62 7c 99 9d 84     ....dc~...eb|...
    19ac:	67 62 7a 98 9e 86 68 61 78 96 9e 89 6a 60 75 95     gbz...hax...j`u.
    19bc:	9f 8b 6b 60 73 93 9f 8d 6d 60 71 91 9f 8f 6f 60     ..k`s...m`q...o`
    19cc:	6f 8f 9f 91 71 60 6d 8d 9f 93 73 60 6c 8b 9f 94     o...q`m...s`l...
    19dc:	75 60 6a 89 9f 96 77 61 68 87 9e 97 79 61 67 85     u`j...wah...yag.
    19ec:	9d 99 7b 62 66 82 9c 9a 7e 63 64 80 9b 9b 80 64     ..{bf...~cd....d
    19fc:	63 7e 9a 9c 82 65 62 7c 99 9d 84 67 61 79 98 9e     c~...eb|...gay..
    1a0c:	87 68 61 77 96 9e 89 6a 60 75 94 9f 8b 6b 60 73     .haw...j`u...k`s
    1a1c:	93 9f 8d 6d 60 71 91 9f 8f 6f 60 6f 8f 9f 91 71     ...m`q...o`o...q
    1a2c:	60 6d 8d 9f 93 73 60 6b 8b 9f 95 75 60 6a 89 9e     `m...s`k...u`j..
    1a3c:	96 77 61 68 86 9e 98 7a 62 67 84 9d 99 7c 62 65     .wah...zbg...|be
    1a4c:	82 9c 9a 7e 63 64 80 9b 9b 80 64 63 7d 9a 9c 83     ...~cd....dc}...
    1a5c:	66 62 7b 99 9d 85 67 61 79 97 9e 87 68 61 77 96     fb{...gay...haw.
    1a6c:	9f 89 6a 60 75 94 9f 8b 6c 60 73 92 9f 8d 6e 60     ..j`u...l`s...n`
    1a7c:	71 90 9f 8f 6f 60 6f 8f 9f 91 71 60 6d 8d 9f 93     q...o`o...q`m...
    1a8c:	74 60 6b 8a 9f 95 76 60 69 88 9e 96 78 61 68 86     t`k...v`i...xah.
    1a9c:	9e 98 7a 62 66 84 9d 99 7c 63 65 82 9c 9b 7f 64     ..zbf...|ce....d
    1aac:	64 7f 9b 9c 81 65 63 7d 9a 9d 83 66 62 7b 98 9d     d....ec}...fb{..
    1abc:	85 67 61 79 97 9e 87 69 61 76 95 9f 8a 6a 60 74     .gay...iav...j`t
    1acc:	94 9f 8c 6c 60 72 92 9f 8e 6e 60 70 90 9f 90 70     ...l`r...n`p...p
    1adc:	60 6e 8e 9f 92 72 60 6c 8c 9f 93 74 60 6b 8a 9f     `n...r`l...t`k..
    1aec:	95 76 61 69 88 9e 97 78 61 68 86 9e 98 7a 62 66     .vai...xah...zbf
    1afc:	83 9d 9a 7d 63 65 81 9c 9b 7f 64 64 7f 9b 9c 81     ...}ce....dd....
    1b0c:	65 63 7d 9a 9d 83 66 62 7a 98 9e 86 68 61 78 97     ec}...fbz...hax.
    1b1c:	9e 88 69 61 76 95 9f 8a 6b 60 74 93 9f 8c 6c 60     ..iav...k`t...l`
    1b2c:	72 92 9f 8e 6e 60 70 90 9f 90 70 60 6e 8e 9f 92     r...n`p...p`n...
    1b3c:	72 60 6c 8c 9f 94 74 60 6a 8a 9f 95 76 61 69 88     r`l...t`j...vai.
    1b4c:	9e 97 79 61 67 85 9d 98 7b 62 66 83 9c 9a 7d 63     ..yag...{bf...}c
    1b5c:	65 80 9e 94 75 60 79 9d 91 69 65 8d 9f 7e 60 75     e...u`y..ie..~`u
    1b6c:	9b 94 6b 63 89 9f 82 61 72 99 97 6f 62 85 a0 86     ..kc...ar..ob...
    1b7c:	62 6e 97 9a 72 60 81 9f 8a 64 6b 94 9c 76 60 7d     bn..r`...dk..v`}
    1b8c:	9e 8d 66 68 90 9d 7a 5f 79 9d 91 68 65 8d 9f 7e     ..fh..z_y..he..~
    1b9c:	60 75 9b 94 6b 63 89 9f 82 61 72 99 97 6f 62 85     `u..kc...ar..ob.
    1bac:	9f 86 62 6e 96 98 73 63 81 9d 89 65 6c 92 9a 76     ..bn..sc...el..v
    1bbc:	62 7d 9c 8c 67 6a 8f 9b 7a 62 7a 9b 90 6a 67 8c     b}..gj..zbz..jg.
    1bcc:	9d 7e 62 76 9a 93 6d 65 89 9d 82 63 73 98 95 70     .~bv..me...cs..p
    1bdc:	64 85 9d 85 64 6f 95 98 73 62 81 9d 89 65 6c 92     d...do..sb...el.
    1bec:	9a 76 62 7d 9c 8c 67 6a 8f 9b 7a 62 7a 9b 90 6a     .vb}..gj..zbz..j
    1bfc:	67 8c 9d 7e 62 76 9a 93 6d 65 89 9d 82 63 73 98     g..~bv..me...cs.
    1c0c:	95 70 64 85 9d 85 64 6f 95 98 73 62 81 9d 89 65     .pd...do..sb...e
    1c1c:	6c 92 9a 76 62 7d 9c 8c 67 6a 8f 9b 7a 62 7a 9b     l..vb}..gj..zbz.
    1c2c:	90 6a 67 8c 9d 7e 62 76 9a 93 6d 65 89 9d 82 63     .jg..~bv..me...c
    1c3c:	73 98 95 70 64 85 9d 85 64 6f 95 98 73 62 81 9d     s..pd...do..sb..
    1c4c:	89 65 6c 92 9a 76 62 7d 9c 8c 67 6a 8f 9b 7a 62     .el..vb}..gj..zb
    1c5c:	7a 9b 90 6a 67 8c 9d 7e 62 76 9a 93 6d 65 89 9d     z..jg..~bv..me..
    1c6c:	82 63 73 98 95 70 64 85 9d 85 64 6f 95 98 73 62     .cs..pd...do..sb
    1c7c:	81 9d 89 65 6c 92 9a 76 62 7d 9c 8c 67 6a 8f 9b     ...el..vb}..gj..
    1c8c:	7a 62 7a 9b 90 6a 67 8c 9d 7e 62 76 9a 93 6d 65     zbz..jg..~bv..me
    1c9c:	89 9d 82 63 73 98 95 70 64 85 9d 85 64 6f 95 98     ...cs..pd...do..
    1cac:	73 62 81 9d 89 65 6c 92 9a 76 62 7d 9c 8c 67 6a     sb...el..vb}..gj
    1cbc:	8f 9b 7a 62 7a 9b 90 6a 67 8c 9d 7e 62 76 9a 93     ..zbz..jg..~bv..
    1ccc:	6d 65 89 9d 82 63 73 98 95 70 64 85 9d 85 64 6f     me...cs..pd...do
    1cdc:	95 98 73 62 81 9d 89 65 6c 92 9a 76 62 7d 9c 8c     ..sb...el..vb}..
    1cec:	67 6a 8f 9b 7a 60 79 9d 91 68 65 8d 9f 7e 60 75     gj..z`y..he..~`u
    1cfc:	9b 94 6b 63 89 9f 82 61 72 99 97 6f 62 85 a0 86     ..kc...ar..ob...
    1d0c:	62 6e 97 9a 72 60 81 9f 8a 64 6b 94 9c 76 60 7d     bn..r`...dk..v`}
    1d1c:	9e 8d 66 68 90 9d 7a 5f 79 9d 91 68 65 8d 9f 7e     ..fh..z_y..he..~
    1d2c:	60 75 9b 94 6b 63 89 9f 82 61 72 99 97 6f 62 85     `u..kc...ar..ob.
    1d3c:	a0 86 62 6e 97 9a 72 60 81 9f 8a 64 6b 94 9c 76     ..bn..r`...dk..v
    1d4c:	60 7d 9e 8d 66 68 90 9d 7a 5f 79 9d 91 68 65 8d     `}..fh..z_y..he.
    1d5c:	9f 7e 60 75 9b 94 6b 63 89 9f 82 61 72 99 97 6f     .~`u..kc...ar..o
    1d6c:	62 85 a0 86 62 6e 97 9a 72 60 81 9f 8a 64 6b 94     b...bn..r`...dk.
    1d7c:	9c 76 60 7d 9e 8d 66 68 90 9d 7a 5f 79 9d 91 68     .v`}..fh..z_y..h
    1d8c:	65 8d 9f 7e 60 75 9b 94 6b 63 89 9f 82 61 72 99     e..~`u..kc...ar.
    1d9c:	97 6f 62 85 a0 86 62 6e 97 9a 72 60 81 9f 8a 64     .ob...bn..r`...d
    1dac:	6b 94 9c 76 60 7d 9e 8d 66 68 90 9d 7a 5f 79 9d     k..v`}..fh..z_y.
    1dbc:	91 68 65 8d 9f 7e 60 75 9b 94 6b 63 89 9f 82 61     .he..~`u..kc...a
    1dcc:	72 99 97 6f 62 85 a0 86 62 6e 97 9a 72 60 81 9f     r..ob...bn..r`..
    1ddc:	8a 64 6b 94 9c 76 60 7d 9e 8d 66 68 90 9d 7a 5f     .dk..v`}..fh..z_
    1dec:	79 9d 91 68 65 8d 9f 7e 60 75 9b 94 6b 63 89 9f     y..he..~`u..kc..
    1dfc:	82 61 72 99 97 6f 62 85 a0 86 62 6e 97 9a 72 60     .ar..ob...bn..r`
    1e0c:	81 9f 8a 64 6b 94 9c 76 60 7d 9e 8d 66 68 90 9d     ...dk..v`}..fh..
    1e1c:	7a 5f 79 9d 91 68 65 8d 9f 7e 60 75 9b 94 6b 63     z_y..he..~`u..kc
    1e2c:	89 9f 82 61 72 99 97 6f 62 85 a0 86 62 6e 97 9a     ...ar..ob...bn..
    1e3c:	72 60 81 9f 8a 64 6b 94 9c 76 60 7d 9e 8d 66 68     r`...dk..v`}..fh
    1e4c:	90 9d 7a 5f 79 9d 91 68 65 8d 9f 7e 60 75 9b 94     ..z_y..he..~`u..
    1e5c:	6b 63 89 9f 82 61 72 99 97 6f 62 85 a0 86 62 6e     kc...ar..ob...bn
    1e6c:	97 9a 72 60 81 9f 8a 64 6b 94 9c 76 60 7d 9e 8d     ..r`...dk..v`}..
    1e7c:	66 68 90 9d 7a 5f 79 9d 91 68 65 8d 9f 7e 60 75     fh..z_y..he..~`u
    1e8c:	9b 94 6b 63 89 9f 82 61 72 99 97 6f 62 85 a0 86     ..kc...ar..ob...
    1e9c:	62 6e 97 9a 72 60 81 9f 8a 64 6b 94 9c 76 60 7d     bn..r`...dk..v`}
    1eac:	9e 8d 66 68 90 9d 7a 5f 79 9d 91 68 65 8d 9f 7e     ..fh..z_y..he..~
    1ebc:	60 75 9b 94 6b 63 89 9f 82 61 72 99 97 6f 62 85     `u..kc...ar..ob.
    1ecc:	a0 86 62 6e 97 9a 72 60 81 9f 8a 64 6b 94 9c 76     ..bn..r`...dk..v
    1edc:	60 7d 9e 8d 66 68 90 9d 7a 5f 79 9d 91 68 65 8d     `}..fh..z_y..he.
    1eec:	9f 7e 60 75 9b 94 6b 63 89 9f 82 61 72 99 97 6f     .~`u..kc...ar..o
    1efc:	62 85 a0 86 62 6e 97 9a 72 60 81 9f 8a 64 6b 94     b...bn..r`...dk.
    1f0c:	9c 76 60 7d 9e 8d 66 68 90 9d 7a 5f 79 9d 91 68     .v`}..fh..z_y..h
    1f1c:	65 8d 9f 7e 60 75 9b 94 6b 63 89 9f 82 61 72 99     e..~`u..kc...ar.
    1f2c:	97 6f 62 85 a0 86 62 6e 97 9a 72 60 81 9f 8a 64     .ob...bn..r`...d
    1f3c:	6b 94 9c 76 60 7d 9e 8d 66 68 90 9d 7a 5f 79 9d     k..v`}..fh..z_y.
    1f4c:	91 68 65 8d 9f 7e 60 75 9b 94 6b 63 89 9f 82 61     .he..~`u..kc...a
    1f5c:	72 99 97 6f 62 85 a0 86 62 6e 97 9a 72 60 81 9f     r..ob...bn..r`..
    1f6c:	8a 64 6b 94 9b 76 62 7d 9c 8c 67 6a 8f 9b 7a 62     .dk..vb}..gj..zb
    1f7c:	7a 9b 90 6a 67 8c 9d 7e 62 76 9a 93 6d 65 89 9d     z..jg..~bv..me..
    1f8c:	82 63 73 98 95 70 64 85 9d 85 64 6f 95 98 73 62     .cs..pd...do..sb
    1f9c:	81 9d 89 65 6c 92 9a 76 62 7d 9c 8c 67 6a 8f 9b     ...el..vb}..gj..
    1fac:	7a 62 7a 9b 90 6a 67 8c 9d 7e 62 76 9a 93 6d 65     zbz..jg..~bv..me
    1fbc:	89 9d 82 63 73 98 95 70 64 85 9d 85 64 6f 95 98     ...cs..pd...do..
    1fcc:	73 62 81 9d 89 65 6c 92 9a 76 62 7d 9c 8c 67 6a     sb...el..vb}..gj
    1fdc:	8f 9b 7a 62 7a 9b 90 6a 67 8c 9d 7e 62 76 9a 93     ..zbz..jg..~bv..
    1fec:	6d 65 89 9d 82 63 73 98 95 70 64 85 9d 85 64 6f     me...cs..pd...do
    1ffc:	95 98 73 62 81 9d 89 65 6c 92 9a 76 62 7d 9c 8c     ..sb...el..vb}..
    200c:	67 6a 8f 9b 7a 60 79 9d 91 68 65 8d 9f 7e 60 75     gj..z`y..he..~`u
    201c:	9b 94 6b 63 89 9f 82 61 72 99 97 6f 62 85 a0 86     ..kc...ar..ob...
    202c:	62 6e 97 9a 72 60 81 9f 8a 64 6b 94 9c 76 60 7d     bn..r`...dk..v`}
    203c:	9e 8d 66 68 90 9d 7a 5f 79 9d 91 68 65 8d 9f 7e     ..fh..z_y..he..~
    204c:	60 75 9b 94 6b 63 89 9f 82 61 72 99 97 6f 62 85     `u..kc...ar..ob.
    205c:	a0 86 62 6e 97 9a 72 60 81 9f 8a 64 6b 94 9c 76     ..bn..r`...dk..v
    206c:	60 7d 9e 8d 66 68 90 9d 7a 5f 79 9d 91 68 65 8d     `}..fh..z_y..he.
    207c:	9f 7e 60 75 9b 94 6b 63 89 9f 82 61 72 99 97 6f     .~`u..kc...ar..o
    208c:	62 85 a0 86 62 6e 97 9a 72 60 81 9f 8a 64 6b 94     b...bn..r`...dk.
    209c:	9c 76 60 7d 9e 8d 66 68 90 9d 7a 5f 79 9d 91 68     .v`}..fh..z_y..h
    20ac:	65 8d 9f 7e 60 75 9b 94 6b 63 89 9f 82 61 72 99     e..~`u..kc...ar.
    20bc:	97 6f 62 85 a0 86 62 6e 97 9a 72 60 81 9f 8a 64     .ob...bn..r`...d
    20cc:	6b 94 9c 76 60 7d 9e 8d 66 68 90 9d 7a 5f 79 9d     k..v`}..fh..z_y.
    20dc:	91 68 65 8d 9f 7e 60 75 9b 94 6b 63 89 9f 82 61     .he..~`u..kc...a
    20ec:	72 99 97 6f 62 85 a0 86 62 6e 97 9a 72 60 81 9f     r..ob...bn..r`..
    20fc:	8a 64 6b 94 9c 76 60 7d 9e 8d 66 68 90 9d 7a 5f     .dk..v`}..fh..z_
    210c:	79 9d 91 68 65 8d 9f 7e 60 75 9b 94 6b 63 89 9f     y..he..~`u..kc..
    211c:	82 61 72 99 97 6f 62 85 a0 86 62 6e 97 9a 72 60     .ar..ob...bn..r`
    212c:	81 9f 8a 64 6b 94 9c 76 60 7d 9e 8d 66 68 90 9d     ...dk..v`}..fh..
    213c:	7a 5f 79 9d 91 68 65 8d 9f 7e 60 75 9b 94 6b 63     z_y..he..~`u..kc
    214c:	89 9f 82 61 72 99 97 6f 62 85 a0 86 62 6e 97 9a     ...ar..ob...bn..
    215c:	72 60 81 9f 8a 64 6b 94 9c 76 60 7d 9e 8d 66 68     r`...dk..v`}..fh
    216c:	90 9d 7a 5f 79 9d 91 68 65 8d 9f 7e 60 75 9b 94     ..z_y..he..~`u..
    217c:	6b 63 89 9f 82 61 72 99 97 6f 62 85 a0 86 62 6e     kc...ar..ob...bn
    218c:	97 9a 72 60 81 9f 8a 64 6b 94 9c 76 60 7d 9e 8d     ..r`...dk..v`}..
    219c:	66 68 90 9d 7a 5f 79 9d 91 68 65 8d 9f 7e 60 75     fh..z_y..he..~`u
    21ac:	9b 94 6b 63 89 9f 82 61 72 99 97 6f 62 85 a0 86     ..kc...ar..ob...
    21bc:	62 6e 97 9a 72 60 81 9f 8a 64 6b 94 9c 76 60 7d     bn..r`...dk..v`}
    21cc:	9e 8d 66 68 90 9d 7a 5f 79 9d 91 68 65 8d 9f 7e     ..fh..z_y..he..~
    21dc:	60 75 9b 94 6b 63 89 9f 82 61 72 99 97 6f 62 85     `u..kc...ar..ob.
    21ec:	a0 86 62 6e 97 9a 72 60 81 9f 8a 64 6b 94 9c 76     ..bn..r`...dk..v
    21fc:	60 7d 9e 8d 66 68 90 9d 7a 5f 79 9d 91 68 65 8d     `}..fh..z_y..he.
    220c:	9f 7e 60 75 9c 94 6c 63 8a 9d 7d 62 6d 94 9d 7a     .~`u..lc..}bm..z
    221c:	60 73 99 99 73 60 7b 9d 93 6d 62 83 9f 8d 67 65     `s..s`{..mb...ge
    222c:	8a 9f 86 63 6a 91 9e 7e 60 71 97 9b 76 60 78 9b     ...cj..~`q..v`x.
    223c:	96 6f 61 7f 9e 90 69 63 87 9f 89 64 68 8e 9f 81     .oa...ic...dh...
    224c:	61 6e 95 9c 7a 60 75 9a 98 72 60 7c 9d 92 6c 62     an..z`u..r`|..lb
    225c:	84 9f 8c 66 66 8b 9f 85 62 6b 92 9c 7d 62 73 96     ...ff...bk..}bs.
    226c:	98 76 62 79 9a 94 70 63 81 9d 8e 6a 66 88 9d 87     .vby..pc...jf...
    227c:	66 6a 8e 9c 80 63 70 94 9a 79 62 76 99 96 72 62     fj...cp..ybv..rb
    228c:	7d 9c 90 6c 64 85 9d 8a 67 68 8b 9d 83 64 6d 92     }..ld...gh...dm.
    229c:	9b 7c 62 74 97 98 75 62 7a 9b 93 6f 63 82 9d 8d     .|bt..ubz..oc...
    22ac:	69 66 89 9d 86 65 6b 8f 9c 7f 63 71 95 99 78 62     if...ek...cq..xb
    22bc:	77 99 95 71 62 7e 9c 90 6b 65 86 9d 89 67 69 8c     w..qb~..ke...gi.
    22cc:	9d 82 63 6e 92 9b 7b 62 75 97 97 74 62 7b 9b 92     ..cn..{bu..tb{..
    22dc:	6e 64 83 9d 8c 69 67 8a 9d 85 65 6c 90 9c 7e 62     nd...ig...el..~b
    22ec:	72 95 99 77 62 78 9a 94 70 63 80 9c 8f 6b 65 87     r..wbx..pc...ke.
    22fc:	9d 88 66 6a 8d 9d 81 63 6f 93 9a 7a 62 75 98 96     ..fj...co..zbu..
    230c:	73 62 7c 9b 91 6d 64 84 9d 8b 68 68 8b 9d 84 64     sb|..md...hh...d
    231c:	6d 91 9c 7d 62 73 96 98 76 62 79 9a 94 6f 63 81     m..}bs..vby..oc.
    232c:	9d 8e 6a 66 88 9d 87 66 6a 8e 9c 80 63 70 94 9a     ..jf...fj...cp..
    233c:	79 62 76 99 96 72 62 7e 9c 90 6c 64 85 9d 8a 67     ybv..rb~..ld...g
    234c:	68 8b 9d 83 64 6d 92 9b 7c 62 74 97 98 75 62 7a     h...dm..|bt..ubz
    235c:	9b 93 6f 63 82 9d 8d 69 66 89 9d 86 65 6b 8f 9c     ..oc...if...ek..
    236c:	7f 63 71 95 99 78 62 77 99 95 71 62 7f 9c 8f 6b     .cq..xbw..qb...k
    237c:	65 86 9d 89 67 69 8c 9d 82 63 6e 92 9b 7b 62 75     e...gi...cn..{bu
    238c:	97 97 74 62 7c 9b 92 6e 64 83 9d 8c 69 67 8a 9d     ..tb|..nd...ig..
    239c:	85 65 6c 90 9c 7e 62 72 95 99 77 60 78 9c 96 6f     .el..~br..w`x..o
    23ac:	61 80 9e 90 69 64 87 9f 89 64 68 8e 9f 81 61 6e     a...id...dh...an
    23bc:	95 9c 79 60 75 9a 98 72 60 7c 9d 92 6c 62 84 9f     ..y`u..r`|..lb..
    23cc:	8c 66 66 8b 9f 84 62 6b 92 9d 7d 60 72 98 9a 75     .ff...bk..}`r..u
    23dc:	60 79 9c 95 6e 61 81 9f 8f 68 64 88 a0 88 64 69     `y..na...hd...di
    23ec:	8f 9e 80 61 6f 96 9c 78 60 76 9a 97 71 60 7d 9e     ...ao..x`v..q`}.
    23fc:	91 6b 63 85 9f 8b 66 67 8c 9f 83 62 6c 93 9d 7c     .kc...fg...bl..|
    240c:	60 73 99 99 74 60 7a 9d 94 6d 61 82 9f 8e 68 65     `s..t`z..ma...he
    241c:	89 9f 86 63 6a 90 9e 7f 60 70 96 9b 77 5f 77 9b     ...cj...`p..w_w.
    242c:	96 70 60 7f 9e 91 6a 63 86 9f 8a 65 67 8d 9f 82     .p`...jc...eg...
    243c:	61 6d 94 9d 7a 60 74 99 99 73 60 7b 9d 93 6c 62     am..z`t..s`{..lb
    244c:	83 9f 8d 67 65 8a 9f 85 63 6b 91 9e 7e 60 71 97     ...ge...ck..~`q.
    245c:	9b 76 60 78 9c 96 6f 61 80 9e 90 69 64 87 a0 89     .v`x..oa...id...
    246c:	64 68 8e 9f 81 61 6e 95 9c 79 60 75 9a 98 72 60     dh...an..y`u..r`
    247c:	7c 9d 92 6c 62 84 9f 8c 66 66 8b 9f 84 62 6b 92     |..lb...ff...bk.
    248c:	9d 7d 60 72 98 9a 75 60 79 9c 95 6e 61 81 9f 8f     .}`r..u`y..na...
    249c:	68 64 88 a0 87 64 69 8f 9e 80 61 6f 96 9c 78 60     hd...di...ao..x`
    24ac:	76 9a 97 71 60 7e 9e 91 6b 63 85 9f 8b 65 67 8d     v..q`~..kc...eg.
    24bc:	9f 83 62 6c 93 9d 7b 60 73 99 99 74 60 7a 9d 94     ..bl..{`s..t`z..
    24cc:	6d 61 82 9f 8e 68 65 89 9f 86 63 6a 90 9e 7f 60     ma...he...cj...`
    24dc:	70 96 9b 77 5f 77 9b 96 70 60 7f 9e 90 6a 63 86     p..w_w..p`...jc.
    24ec:	9f 8a 65 67 8e 9f 82 61 6d 94 9d 7a 60 74 99 99     ..eg...am..z`t..
    24fc:	73 60 7b 9d 93 6c 62 83 9f 8d 67 65 8a 9f 85 63     s`{..lb...ge...c
    250c:	6b 91 9e 7e 60 71 97 9b 76 60 78 9c 96 6f 61 80     k..~`q..v`x..oa.
    251c:	9e 8f 69 64 87 a0 88 64 68 8f 9f 81 61 6e 95 9c     ..id...dh...an..
    252c:	79 60 75 9a 98 72 60 7c 9d 92 6b 62 84 9f 8c 66     y`u..r`|..kb...f
    253c:	66 8c 9f 84 62 6b 92 9d 7c 60 72 98 9a 75 60 79     f...bk..|`r..u`y
    254c:	9c 95 6e 61 81 9f 8f 68 64 88 a0 87 64 69 8f 9e     ..na...hd...di..
    255c:	80 61 6f 96 9c 78 60 76 9b 97 71 60 7e 9e 91 6b     .ao..x`v..q`~..k
    256c:	63 85 9f 8a 65 67 8d 9f 83 62 6c 93 9d 7b 60 73     c...eg...bl..{`s
    257c:	99 99 74 60 7a 9d 94 6d 61 82 9f 8e 67 65 8a 9f     ..t`z..ma...ge..
    258c:	86 63 6a 90 9e 7f 60 70 96 9b 77 5f 77 9b 96 70     .cj...`p..w_w..p
    259c:	60 7f 9e 90 6a 63 86 9f 89 65 68 8e 9f 82 61 6d     `...jc...eh...am
    25ac:	94 9d 7a 60 74 99 99 73 60 7b 9d 93 6c 62 83 9f     ..z`t..s`{..lb..
    25bc:	8c 67 65 8b 9f 85 63 6b 91 9e 7e 60 71 97 9a 76     .ge...ck..~`q..v
    25cc:	60 78 9c 96 6f 61 80 9e 8f 69 64 87 a0 88 64 68     `x..oa...id...dh
    25dc:	8f 9f 81 61 6e 95 9c 79 60 75 9a 98 72 60 7d 9d     ...an..y`u..r`}.
    25ec:	92 6b 62 84 9f 8b 66 66 8c 9f 84 62 6c 92 9d 7c     .kb...ff...bl..|
    25fc:	60 72 98 9a 75 60 79 9c 95 6e 61 81 9f 8e 68 64     `r..u`y..na...hd
    260c:	89 a0 87 64 69 90 9e 80 61 6f 96 9c 78 60 76 9b     ...di...ao..x`v.
    261c:	97 71 60 7e 9e 91 6b 63 85 9f 8b 67 68 8c 9d 83     .q`~..kc...gh...
    262c:	64 6e 92 9b 7c 62 74 97 97 75 62 7b 9b 93 6e 63     dn..|bt..ub{..nc
    263c:	82 9d 8d 69 67 89 9d 86 65 6b 8f 9c 7f 62 71 95     ...ig...ek...bq.
    264c:	99 78 62 78 99 95 71 63 7f 9c 8f 6b 65 86 9d 89     .xbx..qc...ke...
    265c:	67 69 8d 9d 82 63 6f 93 9b 7b 62 75 98 97 74 62     gi...co..{bu..tb
    266c:	7c 9b 92 6d 64 83 9d 8c 68 67 8a 9d 85 65 6c 90     |..md...hg...el.
    267c:	9c 7e 62 72 96 99 77 62 79 9a 94 70 63 80 9c 8e     .~br..wby..pc...
    268c:	6a 66 87 9d 88 66 6a 8e 9d 81 63 6f 93 9a 7a 62     jf...fj...co..zb
    269c:	76 98 96 73 62 7d 9b 91 6d 64 84 9d 8b 68 68 8b     v..sb}..md...hh.
    26ac:	9d 84 64 6d 91 9b 7d 62 73 96 98 76 62 7a 9a 93     ..dm..}bs..vbz..
    26bc:	6f 63 81 9d 8d 6a 66 88 9d 87 65 69 90 9e 80 61     oc...jf...ei...a
    26cc:	6f 96 9c 78 5f 76 9b 97 71 60 7e 9e 91 6a 63 85     o..x_v..q`~..jc.
    26dc:	9f 8a 65 67 8d 9f 83 62 6c 93 9d 7b 60 73 99 99     ..eg...bl..{`s..
    26ec:	74 60 7b 9d 94 6d 61 82 9f 8d 67 65 8a 9f 86 63     t`{..ma...ge...c
    26fc:	6a 91 9e 7e 60 70 97 9b 77 5f 77 9b 96 70 60 7f     j..~`p..w_w..p`.
    270c:	9e 90 6a 63 87 9f 89 65 68 8e 9f 82 61 6d 94 9d     ..jc...eh...am..
    271c:	7a 60 74 99 98 73 60 7c 9d 93 6c 62 83 9f 8c 67     z`t..s`|..lb...g
    272c:	66 8b 9f 85 63 6b 92 9e 7d 60 71 97 9a 76 60 78     f...ck..}`q..v`x
    273c:	9c 95 6f 61 80 9f 8f 69 64 88 a0 88 64 68 8f 9f     ..oa...id...dh..
    274c:	81 61 6e 95 9c 79 60 75 9a 98 72 60 7d 9e 92 6b     .an..y`u..r`}..k
    275c:	62 84 9f 8b 66 66 8c 9f 84 62 6c 92 9d 7c 60 72     b...ff...bl..|`r
    276c:	98 9a 75 60 79 9c 95 6e 61 81 9f 8e 68 64 89 9f     ..u`y..na...hd..
    277c:	87 64 69 90 9e 80 61 6f 96 9b 78 60 76 9b 97 71     .di...ao..x`v..q
    278c:	60 7e 9e 91 6a 63 85 9f 8a 65 67 8d 9f 83 62 6d     `~..jc...eg...bm
    279c:	93 9d 7b 60 73 99 99 74 60 7b 9d 94 6d 61 82 9f     ..{`s..t`{..ma..
    27ac:	8d 67 65 8a 9f 86 63 6a 91 9e 7e 60 70 97 9b 77     .ge...cj..~`p..w
    27bc:	5f 77 9b 96 70 60 7f 9e 90 6a 63 87 9f 89 65 68     _w..p`...jc...eh
    27cc:	8e 9f 82 61 6d 94 9c 7a 60 74 99 98 73 60 7c 9d     ...am..z`t..s`|.
    27dc:	93 6c 62 83 9f 8c 67 66 8b 9f 85 63 6b 92 9e 7d     .lb...gf...ck..}
    27ec:	60 71 97 9a 76 60 78 9c 95 6f 61 80 9f 8f 69 64     `q..v`x..oa...id
    27fc:	88 a0 88 64 68 8f 9f 81 61 6e 95 9c 79 60 75 9a     ...dh...an..y`u.
    280c:	98 72 60 7d 9e 92 6b 62 84 9f 8b 66 66 8c 9f 84     .r`}..kb...ff...
    281c:	62 6c 93 9d 7c 60 72 98 9a 75 60 7a 9c 95 6e 61     bl..|`r..u`z..na
    282c:	81 9f 8e 68 64 89 9f 87 63 69 90 9e 7f 61 6f 96     ...hd...ci...ao.
    283c:	9b 78 5f 76 9b 97 71 60 7e 9e 91 6a 63 86 9f 8a     .x_v..q`~..jc...
    284c:	65 67 8d 9f 83 62 6d 93 9d 7b 60 73 99 99 74 60     eg...bm..{`s..t`
    285c:	7b 9d 94 6d 61 82 9f 8d 67 65 8a 9f 86 63 6a 91     {..ma...ge...cj.
    286c:	9e 7e 60 70 97 9b 77 5f 77 9b 96 70 60 7f 9e 90     .~`p..w_w..p`...
    287c:	6a 63 87 9f 89 65 68 8e 9f 82 61 6d 94 9c 7a 60     jc...eh...am..z`
    288c:	74 99 98 73 60 7c 9d 93 6c 62 83 9f 8c 67 66 8b     t..s`|..lb...gf.
    289c:	9f 85 62 6b 92 9e 7d 60 71 97 9a 76 60 79 9c 95     ..bk..}`q..v`y..
    28ac:	6f 61 80 9f 8f 69 64 88 a0 88 64 68 8f 9f 80 61     oa...id...dh...a
    28bc:	6e 95 9c 79 60 75 9a 98 72 60 7d 9d 92 6b 62 84     n..y`u..r`}..kb.
    28cc:	9f 8c 67 66 8b 9f 86 63 6a 90 9e 7f 61 6f 95 9c     ..gf...cj...ao..
    28dc:	79 60 75 99 99 73 60 7a 9c 95 6f 61 7f 9e 91 6a     y`u..s`z..oa...j
    28ec:	63 85 9f 8c 67 65 89 9f 88 64 68 8d 9f 83 62 6b     c...ge...dh...bk
    28fc:	91 9e 7f 61 6e 94 9d 7b 60 71 97 9b 78 60 75 99     ...an..{`q..x`u.
    290c:	99 75 60 78 9b 97 72 60 7a 9c 96 70 60 7d 9d 94     .u`x..r`z..p`}..
    291c:	6e 61 7f 9e 92 6c 61 81 9e 91 6b 62 82 9f 8f 6a     na...la...kb...j
    292c:	63 84 9f 8e 69 63 85 9f 8d 68 63 86 9f 8d 68 64     c...ic...hc...hd
    293c:	86 9f 8d 68 64 86 9f 8d 68 64 86 9f 8d 68 64 86     ...hd...hd...hd.
    294c:	9f 8d 68 63 85 9f 8e 69 63 84 9f 8f 6a 62 83 9f     ..hc...ic...jb..
    295c:	90 6b 62 81 9e 92 6c 61 7f 9e 93 6e 61 7d 9d 95     .kb...la...na}..
    296c:	70 60 7a 9c 97 72 60 78 9a 99 75 60 75 99 9b 78     p`z..r`x..u`u..x
    297c:	60 72 96 9c 7c 60 6f 94 9e 7f 61 6b 90 9f 84 63     `r..|`o...ak...c
    298c:	68 8d 9f 88 65 66 88 9f 8c 68 63 84 9f 91 6c 61     h...ef...hc...la
    299c:	7e 9d 95 70 60 79 9b 99 75 60 74 97 9c 7b 60 6e     ~..p`y..u`t..{`n
    29ac:	93 9e 81 62 69 8e 9f 88 65 65 87 9f 8e 6a 62 81     ...bi...ee...jb.
    29bc:	9e 94 6f 60 7a 9b 99 76 60 72 96 9d 7d 61 6c 90     ..o`z..v`r..}al.
    29cc:	9f 85 64 66 89 9f 8d 69 62 81 9e 94 70 60 78 9a     ..df...ib...p`x.
    29dc:	9a 78 60 70 94 9e 81 62 69 8c 9f 8a 68 63 83 9e     .x`p...bi...hc..
    29ec:	93 6f 60 79 9a 9a 78 60 70 93 9e 82 63 68 8a 9f     .o`y..x`p...ch..
    29fc:	8c 69 62 80 9d 95 72 60 75 98 9c 7d 61 6b 8f 9f     .ib...r`u..}ak..
    2a0c:	88 66 64 84 9e 92 6f 60 78 9a 9b 7a 60 6d 91 9f     .fd...o`x..z`m..
    2a1c:	86 65 65 85 9f 92 6e 60 79 9a 9a 7a 60 6d 90 9f     .ee...n`y..z`m..
    2a2c:	87 66 64 84 9e 93 70 60 76 98 9c 7d 61 6a 8d 9f     .fd...p`v..}aj..
    2a3c:	8b 68 62 80 9d 97 74 60 72 94 9e 83 64 66 87 9f     .hb...t`r...df..
    2a4c:	91 6e 60 79 99 9b 7c 61 6b 8e 9f 8b 69 62 7f 9c     .n`y..|ak...ib..
    2a5c:	98 76 60 6f 92 9f 86 65 64 83 9e 94 72 60 73 95     .v`o...ed...r`s.
    2a6c:	9e 82 63 66 87 9f 92 6f 60 76 97 9d 80 62 68 89     ..cf...o`v...bh.
    2a7c:	9f 90 6e 60 77 98 9c 7e 62 68 8a 9f 90 6d 60 78     ..n`w..~bh...m`x
    2a8c:	98 9c 7e 62 68 89 9f 90 6e 60 77 98 9d 80 63 67     ..~bh...n`w...cg
    2a9c:	88 9f 92 6f 60 75 96 9e 82 64 65 85 9e 94 72 60     ...o`u...de...r`
    2aac:	71 93 9f 86 66 63 81 9d 97 77 60 6d 8f 9f 8b 6a     q...fc...w`m...j
    2abc:	61 7b 9a 9b 7c 62 69 8a 9f 91 6f 60 75 96 9e 84     a{..|bi...o`u...
    2acc:	65 64 82 9d 97 76 60 6d 8f 9f 8c 6a 61 7a 99 9c     ed...v`m...jaz..
    2adc:	7f 63 67 87 9f 94 72 60 70 92 9f 89 68 61 7c 9a     .cg...r`p...ha|.
    2aec:	9b 7d 62 68 88 9f 93 72 60 71 92 9f 89 69 61 7b     .}bh...r`q...ia{
    2afc:	9a 9b 7e 62 67 86 9e 95 74 60 6e 90 9f 8c 6b 60     ..~bg...t`n...k`
    2b0c:	78 98 9d 82 65 64 81 9d 98 79 61 6a 8b 9f 91 70     x...ed...yaj...p
    2b1c:	60 71 93 9f 89 69 61 7a 99 9d 81 64 64 82 9d 98     `q...iaz...dd...
    2b2c:	79 61 6a 8a 9f 92 71 60 70 91 9f 8c 6b 60 77 96     yaj...q`p...k`w.
    2b3c:	9e 85 66 62 7d 9b 9b 7e 63 66 84 9e 97 78 60 6a     ..fb}..~cf...x`j
    2b4c:	8a 9f 93 72 60 6f 90 9f 8e 6d 60 74 94 9f 89 69     ...r`o...m`t...i
    2b5c:	61 79 98 9d 84 66 63 7e 9b 9b 7f 63 65 82 9d 99     ay...fc~...ce...
    2b6c:	7b 61 67 86 9e 96 77 60 6a 8a 9f 94 73 60 6d 8d     {ag...w`j...s`m.
    2b7c:	9f 91 70 5f 70 90 a0 8e 6e 60 72 92 9f 8c 6c 60     ..p_p...n`r...l`
    2b8c:	74 94 9f 8a 6a 60 76 96 9f 88 69 61 78 97 9e 86     t...j`v...iax...
    2b9c:	68 61 79 98 9e 85 67 61 7a 98 9d 84 67 62 7b 99     hay...gaz...gb{.
    2bac:	9d 84 66 62 7b 99 9d 84 66 62 7b 99 9d 84 66 62     ..fb{...fb{...fb
    2bbc:	7b 99 9d 84 67 62 7a 98 9e 85 67 61 79 97 9e 87     {...gbz...gay...
    2bcc:	68 61 78 96 9e 88 69 60 76 95 9f 8a 6b 60 74 93     hax...i`v...k`t.
    2bdc:	9f 8c 6c 60 72 92 9f 8e 6e 60 70 90 9f 90 70 60     ..l`r...n`p...p`
    2bec:	6e 8e 9f 92 72 60 6c 8c 9f 94 74 60 6a 8a 9f 95     n...r`l...t`j...
    2bfc:	76 61 69 87 9e 97 79 61 67 85 9d 98 7b 62 66 83     vai...yag...{bf.
    2c0c:	9d 9a 7d 63 65 81 9c 9b 7f 64 63 7e 9b 9c 82 65     ..}ce....dc~...e
    2c1c:	63 7c 99 9d 84 66 62 7a 98 9e 86 68 61 78 96 9e     c|...fbz...hax..
    2c2c:	88 69 60 76 95 9f 8a 6b 60 73 93 9f 8d 6d 60 71     .i`v...k`s...m`q
    2c3c:	91 9f 8f 6f 60 6f 8f 9f 91 71 60 6e 8d 9f 92 73     ...o`o...q`n...s
    2c4c:	60 6c 8b 9f 94 75 60 6a 89 9f 96 77 61 68 87 9e     `l...u`j...wah..
    2c5c:	97 79 61 67 85 9d 99 7b 62 66 83 9c 9a 7e 63 64     .yag...{bf...~cd
    2c6c:	80 9b 9b 80 64 63 7e 9a 9c 82 65 62 7c 99 9d 84     ....dc~...eb|...
    2c7c:	67 62 7a 98 9e 87 68 61 77 96 9e 89 6a 60 75 95     gbz...haw...j`u.
    2c8c:	9f 8b 6b 60 73 93 9f 8d 6d 60 71 91 9f 8f 6f 60     ..k`s...m`q...o`
    2c9c:	6f 8f 9f 91 71 60 6d 8d 9f 93 73 60 6b 8b 9f 94     o...q`m...s`k...
    2cac:	75 60 6a 89 9e 96 77 61 68 87 9e 98 79 61 67 84     u`j...wah...yag.
    2cbc:	9d 99 7c 62 65 82 9c 9a 7e 63 64 80 9b 9b 80 64     ..|be...~cd....d
    2ccc:	63 7e 9a 9c 82 66 62 7b 99 9d 85 67 61 79 97 9e     c~...fb{...gay..
    2cdc:	87 68 61 77 96 9f 89 6a 60 75 94 9f 8b 6c 60 73     .haw...j`u...l`s
    2cec:	92 9f 8d 6d 60 71 91 9f 8f 6f 60 6f 8f 9f 91 71     ...m`q...o`o...q
    2cfc:	60 6d 8d 9f 93 73 60 6b 8b 9f 95 75 60 69 88 9e     `m...s`k...u`i..
    2d0c:	96 78 61 68 86 9e 98 7a 62 66 84 9d 99 7c 62 65     .xah...zbf...|be
    2d1c:	82 9c 9a 7e 63 64 80 9b 9c 81 65 63 7d 9a 9d 83     ...~cd....ec}...
    2d2c:	66 62 7b 99 9d 85 67 61 79 97 9e 87 69 61 77 96     fb{...gay...iaw.
    2d3c:	9f 89 6a 60 74 94 9f 8c 6c 60 72 92 9f 8e 6e 60     ..j`t...l`r...n`
    2d4c:	70 90 9f 90 70 60 6e 8e 9f 91 72 60 6d 8c 9f 93     p...p`n...r`m...
    2d5c:	74 60 6b 8a 9f 95 76 60 69 88 9e 97 78 61 68 86     t`k...v`i...xah.
    2d6c:	9e 98 7a 62 66 84 9d 99 7c 63 65 81 9c 9b 7f 64     ..zbf...|ce....d
    2d7c:	64 7f 9b 9c 81 65 63 7d 9a 9d 83 66 62 7b 98 9d     d....ec}...fb{..
    2d8c:	85 67 61 78 97 9e 88 69 61 76 95 9f 8a 6b 60 74     .gax...iav...k`t
    2d9c:	94 9f 8c 6c 60 72 92 9f 8e 6e 60 70 90 9f 90 70     ...l`r...n`p...p
    2dac:	60 6e 8e 9f 92 72 60 6c 8c 9f 94 74 60 6b 8a 9f     `n...r`l...t`k..
    2dbc:	95 76 61 69 88 9e 97 78 61 67 86 9e 98 7b 62 66     .vai...xag...{bf
    2dcc:	83 9d 9a 7d 63 65 81 9c 9b 7f 64 64 7f 9b 9c 81     ...}ce....dd....
    2ddc:	65 63 7d 99 9d 84 66 62 7a 98 9e 86 68 61 78 97     ec}...fbz...hax.
    2dec:	9e 88 69 60 76 95 9f 8a 6b 60 74 93 9f 8c 6d 60     ..i`v...k`t...m`
    2dfc:	72 92 9f 8e 6e 60 70 90 9f 90 70 60 6e 8e 9f 92     r...n`p...p`n...
    2e0c:	72 60 6c 8c 9f 94 74 60 6a 8a 9f 96 77 61 69 87     r`l...t`j...wai.
    2e1c:	9e 97 79 61 67 85 9d 99 7b 62 66 83 9d 9a 7d 63     ..yag...{bf...}c
    2e2c:	65 81 9c 9b 7f 64 63 7e 9a 9c 82 65 62 7c 99 9d     e....dc~...eb|..
    2e3c:	84 66 62 7a 98 9e 86 68 61 78 96 9e 88 69 60 76     .fbz...hax...i`v
    2e4c:	95 9f 8b 6b 60 73 93 9f 8d 6d 60 71 91 9f 8f 6f     ...k`s...m`q...o
    2e5c:	60 6f 8f 9f 91 71 60 6d 8d 9f 92 73 60 6c 8b 9f     `o...q`m...s`l..
    2e6c:	94 75 60 6a 89 9f 96 77 61 68 87 9e 97 79 61 67     .u`j...wah...yag
    2e7c:	85 9d 99 7b 62 66 83 9c 9a 7e 63 64 80 9b 9b 80     ...{bf...~cd....
    2e8c:	64 63 7e 9a 9c 82 65 62 7c 99 9d 84 67 61 79 98     dc~...eb|...gay.
    2e9c:	9e 87 68 61 77 96 9e 89 6a 60 75 94 9f 8b 6b 60     ..haw...j`u...k`
    2eac:	73 93 9f 8d 6d 60 71 91 9f 8f 6f 60 6f 8f 9f 91     s...m`q...o`o...
    2ebc:	71 60 6d 8d 9f 93 73 60 6b 8b 9f 94 75 60 6a 89     q`m...s`k...u`j.
    2ecc:	9e 96 77 61 68 87 9e 98 7a 62 67 84 9d 99 7c 62     ..wah...zbg...|b
    2edc:	65 82 9c 9a 7e 63 64 80 9b 9b 80 64 63 7e 9a 9c     e...~cd....dc~..
    2eec:	83 66 62 7b 99 9d 85 67 61 79 97 9e 87 68 61 77     .fb{...gay...haw
    2efc:	96 9f 89 6a 60 75 94 9f 8b 6c 60 73 92 9f 8d 6e     ...j`u...l`s...n
    2f0c:	60 71 91 9f 8f 6f 60 6f 8f 9f 91 71 60 6d 8d 9f     `q...o`o...q`m..
    2f1c:	93 73 60 6b 8b 9f 95 76 60 69 88 9e 96 78 61 68     .s`k...v`i...xah
    2f2c:	86 9e 98 7a 62 66 84 9d 99 7c 62 65 82 9c 9a 7e     ...zbf...|be...~
    2f3c:	63 64 7f 9b 9c 81 65 63 7d 9a 9d 83 66 62 7b 99     cd....ec}...fb{.
    2f4c:	9d 85 67 61 79 97 9e 87 69 61 77 96 9f 8a 6a 60     ..gay...iaw...j`
    2f5c:	74 94 9f 8c 6c 60 72 92 9f 8e 6e 60 70 90 9f 90     t...l`r...n`p...
    2f6c:	70 5f 6e 8e 9f 92 70 62 69 91 98 8e 77 63 66 6b     p_n...pbi...wcfk
    2f7c:	98 97 9c 82 61 69 64 92 99 9b 8d 62 6a 62 87 9c     ....aid....bjb..
    2f8c:	98 96 67 68 62 7c 9d 95 9c 6f 65 65 71 9c 95 9d     ..ghb|...oeeq...
    2f9c:	7a 63 68 68 97 97 9c 86 62 6a 63 8e 9a 99 90 64     zchh....bjc....d
    2fac:	6a 62 83 9d 97 98 69 67 63 77 9d 95 9d 73 64 66     jb....igcw...sdf
    2fbc:	6d 9b 96 9d 7e 62 69 66 94 98 9b 8a 64 6b 64 8a     m...~bif....dkd.
    2fcc:	99 97 92 67 6a 64 7f 9b 94 98 6e 68 66 74 9b 94     ...gjd....nhft..
    2fdc:	9b 77 65 69 6b 97 95 9b 82 64 6b 66 90 97 99 8c     .weik....dkf....
    2fec:	65 6b 64 86 9a 96 95 69 6a 64 7b 9b 94 9a 71 67     ekd....ijd{...qg
    2ffc:	67 71 9a 94 9b 7b 64 6a 69 95 96 9a 86 64 6b 65     gq...{dji....dke
    300c:	8d 99 98 90 66 6b 64 82 9b 95 97 6b 69 65 77 9b     ....fkd....kiew.
    301c:	94 9b 74 66 68 6e 99 94 9b 7f 64 6a 67 92 97 99     ..tfhn....djg...
    302c:	8a 64 6b 64 89 9a 96 93 67 6a 64 7e 9b 94 99 6e     .dkd....gjd~...n
    303c:	68 66 74 9b 94 9b 78 65 69 6b 97 95 9b 83 64 6b     hft...xeik....dk
    304c:	65 8f 98 98 8d 65 6b 64 85 9a 96 95 69 6a 65 7a     e....ekd....ijez
    305c:	9b 94 9a 71 67 67 70 9a 94 9b 7c 64 6a 69 94 96     ...qggp...|dji..
    306c:	9a 87 64 6b 64 8c 99 97 90 66 6b 64 81 9b 95 97     ..dkd....fkd....
    307c:	6c 69 65 76 9b 94 9b 75 66 68 6d 98 94 9b 80 64     liev...ufhm....d
    308c:	6b 67 92 97 99 8a 64 6b 64 88 9a 96 93 68 6a 64     kg....dkd....hjd
    309c:	7d 9b 94 99 6f 68 66 73 9b 94 9b 79 65 69 6a 96     }...ohfs...yeij.
    30ac:	95 9b 84 64 6b 65 8e 98 98 8e 65 6b 64 84 9b 95     ...dke....ekd...
    30bc:	96 6a 69 65 79 9b 94 9a 72 67 67 6f 99 94 9b 7d     .jiey...rggo...}
    30cc:	64 6a 68 94 96 9a 88 64 6b 64 8b 99 97 91 66 6b     djh....dkd....fk
    30dc:	64 80 9b 95 98 6d 68 66 76 9b 94 9b 76 66 68 6c     d....mhfv...vfhl
    30ec:	98 95 9b 81 64 6b 66 91 97 99 8b 64 6b 64 87 9a     ....dkf....dkd..
    30fc:	96 94 68 6a 64 7c 9b 94 9a 6f 68 66 71 9c 95 9d     ..hjd|...ohfq...
    310c:	79 63 68 68 97 97 9c 85 62 6a 63 8f 9a 9a 90 63     ychh....bjc....c
    311c:	6a 62 84 9d 97 98 69 68 63 78 9d 95 9c 72 65 66     jb....ihcx...ref
    312c:	6e 9b 96 9d 7d 62 69 66 95 98 9c 89 62 6a 62 8b     n...}bif....bjb.
    313c:	9b 99 93 65 69 62 80 9d 96 9a 6c 67 64 74 9d 95     ...eib....lgdt..
    314c:	9d 76 63 67 6a 99 96 9d 82 62 69 64 92 99 9b 8d     .vcgj....bid....
    315c:	62 6a 62 87 9c 97 96 67 68 62 7b 9d 95 9c 6f 65     bjb....ghb{...oe
    316c:	65 70 9c 95 9d 7a 63 68 68 97 97 9c 86 62 6a 63     ep...zchh....bjc
    317c:	8e 9a 99 90 64 6a 62 83 9d 97 98 6a 67 63 77 9d     ....djb....jgcw.
    318c:	95 9d 73 64 66 6d 9b 96 9d 7e 62 69 66 94 98 9b     ..sdfm...~bif...
    319c:	8a 62 6a 62 8a 9b 98 94 65 69 62 7f 9d 96 9a 6d     .bjb....eib....m
    31ac:	66 64 73 9d 95 9d 77 63 67 6a 99 96 9d 82 62 69     fds...wcgj....bi
    31bc:	64 91 99 9a 8e 63 6a 62 86 9c 97 97 68 68 63 7a     d....cjb....hhcz
    31cc:	9d 95 9c 70 65 65 70 9c 95 9d 7b 62 68 67 96 97     ...peep...{bhg..
    31dc:	9c 87 62 6a 63 8d 9a 99 91 64 69 62 82 9d 96 99     ..bjc....dib....
    31ec:	6a 67 63 76 9d 95 9d 74 64 66 6c 9a 96 9d 7f 62     jgcv...tdfl....b
    31fc:	69 65 93 98 9b 8b 62 6a 62 89 9b 98 94 66 69 62     ie....bjb....fib
    320c:	7e 9d 96 9b 6d 66 64 72 9d 95 9d 78 63 67 69 98     ~...mfdr...xcgi.
    321c:	97 9d 83 62 6a 64 90 9a 9a 8e 63 6a 62 85 9c 97     ...bjd....cjb...
    322c:	97 68 68 63 7a 9d 95 9c 71 65 66 6f 9b 95 9d 7c     .hhcz...qefo...|
    323c:	62 68 67 96 98 9c 88 62 6a 62 8c 9b 99 92 64 69     bhg....bjb....di
    324c:	62 81 9d 96 99 6b 67 64 75 9d 95 9d 74 64 67 6c     b....kgdu...tdgl
    325c:	9a 96 9d 80 62 69 65 93 99 9b 8b 62 6a 62 89 9c     ....bie....bjb..
    326c:	98 95 66 69 62 7d 9d 96 9b 6e 66 65 72 9c 95 9d     ..fib}...nfer...
    327c:	79 63 68 69 98 97 9d 84 62 6a 63 8f 9a 9a 8f 63     ychi....bjc....c
    328c:	6a 62 84 9d 97 98 69 68 63 79 9d 95 9c 71 65 66     jb....ihcy...qef
    329c:	6e 9b 96 9d 7d 62 69 66 95 98 9c 88 62 6a 62 8c     n...}bif....bjb.
    32ac:	9b 99 93 65 69 62 80 9d 96 9a 6b 67 64 75 9d 95     ...eib....kgdu..
    32bc:	9d 75 64 67 6b 99 96 9d 81 62 69 64 92 99 9b 8c     .udgk....bid....
    32cc:	62 6a 62 88 9c 98 96 67 68 62 7c 9d 95 9b 6f 66     bjb....ghb|...of
    32dc:	65 71 9c 95 9d 79 63 68 68 97 97 9c 85 62 6a 63     eq...ychh....bjc
    32ec:	8f 9a 9a 90 63 6a 62 84 9d 97 98 69 68 63 78 9d     ....cjb....ihcx.
    32fc:	95 9d 72 64 66 6d 9b 96 9d 7e 62 69 66 94 98 9b     ..rdfm...~bif...
    330c:	89 62 6a 62 8b 9b 98 93 65 69 62 7f 9d 96 9a 6c     .bjb....eib....l
    331c:	66 64 74 9d 95 9d 76 63 67 6a 99 96 9d 82 62 69     fdt...vcgj....bi
    332c:	64 91 99 9a 8d 63 6a 62 87 9c 97 96 67 68 62 7b     d....cjb....ghb{
    333c:	9d 95 9c 6f 65 65 70 9c 95 9d 7a 63 68 68 97 97     ...oeep...zchh..
    334c:	9c 86 62 6a 63 8e 9a 99 91 64 69 62 83 9d 96 99     ..bjc....dib....
    335c:	6a 67 63 77 9d 95 9d 73 64 66 6d 9a 96 9d 7e 62     jgcw...sdfm...~b
    336c:	69 65 94 98 9b 8a 62 6a 62 8a 9b 98 94 65 69 62     ie....bjb....eib
    337c:	7e 9d 96 9a 6d 66 64 73 9d 95 9d 77 65 69 6b 97     ~...mfds...weik.
    338c:	95 9b 82 64 6b 66 8f 98 98 8d 65 6b 64 86 9a 96     ...dkf....ekd...
    339c:	95 69 6a 64 7b 9b 94 9a 71 67 67 70 9a 94 9b 7b     .ijd{...qggp...{
    33ac:	64 6a 69 95 96 9a 86 64 6b 64 8c 99 97 90 66 6b     dji....dkd....fk
    33bc:	64 82 9b 95 97 6c 69 65 77 9b 94 9b 75 66 68 6d     d....liew...ufhm
    33cc:	98 94 9b 7f 64 6b 67 92 97 99 8a 64 6b 64 89 9a     ....dkg....dkd..
    33dc:	96 93 68 6a 64 7e 9b 94 99 6f 68 66 73 9b 94 9b     ..hjd~...ohfs...
    33ec:	78 65 69 6b 96 95 9b 83 64 6b 65 8f 98 98 8e 65     xeik....dke....e
    33fc:	6b 64 85 9a 95 96 6a 69 65 7a 9b 94 9a 72 67 67     kd....jiez...rgg
    340c:	70 99 94 9b 7c 64 6a 68 94 96 9a 87 64 6b 64 8b     p...|djh....dkd.
    341c:	99 97 91 66 6b 64 81 9b 95 98 6c 68 64 75 9d 95     ...fkd....lhdu..
    342c:	9d 75 64 67 6b 9a 96 9d 80 62 69 65 93 99 9b 8c     .udgk....bie....
    343c:	62 6a 62 88 9c 98 95 66 69 62 7d 9d 96 9b 6e 66     bjb....fib}...nf
    344c:	65 71 9c 95 9d 79 63 68 69 98 97 9c 85 62 6a 63     eq...ychi....bjc
    345c:	8f 9a 9a 8f 63 6a 62 84 9d 97 98 69 68 63 78 9d     ....cjb....ihcx.
    346c:	95 9c 72 65 66 6e 9b 96 9d 7d 62 69 66 95 98 9c     ..refn...}bif...
    347c:	89 62 6a 62 8b 9b 99 93 65 69 62 80 9d 96 9a 6c     .bjb....eib....l
    348c:	67 64 74 9d 95 9d 76 64 67 6b 99 96 9d 81 62 69     gdt...vdgk....bi
    349c:	64 92 99 9b 8d 62 6a 62 87 9c 98 96 67 68 62 7c     d....bjb....ghb|
    34ac:	9d 95 9b 6f 66 65 71 9c 95 9d 7a 63 68 68 97 97     ...ofeq...zchh..
    34bc:	9c 85 62 6a 63 8e 9a 99 90 64 6a 62 83 9d 97 98     ..bjc....djb....
    34cc:	69 67 63 78 9d 95 9d 72 64 66 6d 9b 96 9d 7e 62     igcx...rdfm...~b
    34dc:	69 66 94 98 9b 89 62 6a 62 8b 9b 98 93 65 69 62     if....bjb....eib
    34ec:	7f 9d 96 9a 6c 66 64 74 9d 95 9d 76 63 67 6a 99     ....lfdt...vcgj.
    34fc:	96 9d 82 62 69 64 91 99 9a 8d 63 6a 62 87 9c 97     ...bid....cjb...
    350c:	96 67 68 62 7b 9d 95 9c 70 65 65 70 9c 95 9d 7b     .ghb{...peep...{
    351c:	63 68 67 96 97 9c 86 62 6a 63 8e 9a 99 91 64 69     chg....bjc....di
    352c:	62 82 9d 96 99 6a 67 63 77 9d 95 9d 73 64 66 6c     b....jgcw...sdfl
    353c:	9a 96 9d 7f 62 69 65 94 98 9b 8a 62 6a 62 8a 9b     ....bie....bjb..
    354c:	98 94 66 69 62 7e 9d 96 9b 6d 66 64 73 9d 95 9d     ..fib~...mfds...
    355c:	77 63 67 69 98 97 9d 83 62 6a 64 90 99 9a 8e 63     wcgi....bjd....c
    356c:	6a 62 86 9c 97 97 68 68 63 7a 9d 95 9c 70 65 65     jb....hhcz...pee
    357c:	6f 9c 95 9d 7b 62 68 67 96 97 9c 87 62 6a 62 8d     o...{bhg....bjb.
    358c:	9b 99 92 64 69 62 81 9d 96 99 6b 67 64 76 9d 95     ...dib....kgdv..
    359c:	9d 74 64 67 6c 9a 96 9d 80 62 69 65 93 99 9b 8b     .tdgl....bie....
    35ac:	62 6a 62 89 9c 98 95 66 69 62 7d 9d 96 9b 6e 66     bjb....fib}...nf
    35bc:	65 72 9c 95 9d 78 63 68 69 98 97 9d 84 62 6a 63     er...xchi....bjc
    35cc:	90 9a 9a 8f 63 6a 62 85 9c 97 97 68 68 63 79 9d     ....cjb....hhcy.
    35dc:	95 9c 71 65 66 6e 9b 96 9d 7c 62 68 66 95 98 9c     ..qefn...|bhf...
    35ec:	88 62 6a 62 8c 9b 99 92 65 69 62 81 9d 96 9a 6b     .bjb....eib....k
    35fc:	67 64 75 9d 95 9d 75 64 67 6b 9a 96 9d 81 62 69     gdu...udgk....bi
    360c:	65 92 99 9b 8c 62 6a 62 88 9c 98 95 66 68 62 7c     e....bjb....fhb|
    361c:	9d 96 9b 6e 66 65 71 9c 95 9d 79 63 67 6a 96 99     ...nfeq...ycgj..
    362c:	99 8c 7c 82 7e 80 7f                                ..|.~..

00003633 <crash18605>:
    3633:	74 61 fa 08 00 00 80 80 80 80 80 80 80 80 80 80     ta..............
    3643:	80 80 80 80 80 80 80 80 80 80 80 80 80 80 80 80     ................
    3653:	80 7f 7f 7f 7f 7f 80 7f 80 7f 80 7f 80 80 7f 80     ................
    3663:	7f 80 7f 80 80 7f 80 7f 80 80 7f 80 7f 7f 7f 80     ................
    3673:	80 7f 7f 80 7f 7f 80 7f 7f 7f 7f 80 80 80 80 7f     ................
    3683:	7f 7f 80 7f 80 7f 7f 80 80 80 7f 7f 80 80 7f 7f     ................
    3693:	7f 7f 80 7f 80 80 7f 80 80 7f 80 80 7f 80 7f 80     ................
    36a3:	80 7f 7f 7f 80 80 7f 7f 80 7f 80 80 7f 7f 7f 80     ................
    36b3:	80 80 80 7f 80 7f 80 80 7f 80 80 7f 7f 80 80 80     ................
    36c3:	7f 7f 7f 7f 80 80 80 7f 7f 7f 80 7f 7f 80 7f 80     ................
    36d3:	7f 80 80 7f 80 80 80 80 7f 80 80 80 7f 80 80 80     ................
    36e3:	80 7f 7f 80 80 80 80 7f 80 80 80 80 7f 80 80 80     ................
    36f3:	80 80 7f 7f 80 80 80 80 7f 7f 80 7f 80 80 7f 7e     ...............~
    3703:	80 80 7f 7e 7e 7f 7f 7f 7f 80 81 80 80 7f 80 80     ...~~...........
    3713:	80 81 80 80 80 7f 80 7f 7d 81 7f 81 80 82 80 7e     ........}......~
    3723:	ba bc a1 ab b0 bc b6 c4 98 6a 82 7b 6c 5e 56 4f     .........j.{l^VO
    3733:	50 4e 50 4f 57 59 5b a3 a6 90 a0 ae b5 b9 bf ba     PNPOWY[.........
    3743:	b7 b3 b0 a1 ab 7f 4e 65 5f 4a 6d 83 60 6c 77 4c     ......Ne_Jm.`lwL
    3753:	42 69 68 61 98 96 75 81 90 9b a7 9c a6 8a 56 71     Biha..u.......Vq
    3763:	72 62 5c 54 52 50 4c 70 8d 7a 83 91 68 5b 7c 77     rb\TRPLp.z..h[|w
    3773:	79 a5 9d 8d 98 9c a1 a3 9e aa 91 63 82 7c 6a 6a     y..........c.|jj
    3783:	61 5d 59 55 85 aa 8e 92 9d a6 a4 a1 a7 9f a7 a3     a]YU............
    3793:	9a 9e 97 8d 98 91 9b 7d 40 5d 5a 54 4c 3d 48 48     .......}@]ZTL=HH
    37a3:	4c 54 5b 56 5b 5c 90 a7 8f a0 a9 ad ae b3 b3 a9     LT[V[\..........
    37b3:	b1 ae a8 b0 ab a2 9f 9c 99 95 8f 8b 89 82 5b 3c     ..............[<
    37c3:	50 52 44 71 7f 62 69 77 89 93 99 a5 ae a9 b1 a9     PRDq.biw........
    37d3:	a7 91 59 67 77 60 70 91 76 67 7a 58 44 63 62 5d     ..Ygw`p.vgzXDcb]
    37e3:	64 67 66 62 63 65 66 60 6b 6b 61 6e 79 7e 81 8d     dgfbcef`kkany~..
    37f3:	8b 92 87 9f d0 af a2 ad b0 ba b1 ad b9 7f 5a 80     ..............Z.
    3803:	79 66 97 a9 7e 89 88 4b 4b 6e 5e 6f 9c 87 73 83     yf..~..KKn^o..s.
    3813:	8f 9b a6 ab b4 89 68 85 7d 64 92 9d 75 73 74 78     ......h.}d..ustx
    3823:	7c 86 a2 99 58 58 67 50 5d 8b 7c 6e 81 8b 98 99     |...XXgP].|n....
    3833:	9e a0 95 91 9f 96 97 6f 47 60 57 43 74 7a 61 70     .......oG`WCtzap
    3843:	79 8b 9b 99 a8 98 4a 53 65 51 4a 4d 4e 48 4e 48     y.....JSeQJMNHNH
    3853:	47 4e 59 5c 65 77 70 6f 76 78 78 84 7c 81 c1 c8     GNY\ewpovxx.|...
    3863:	ab bf bb 87 8e a6 85 93 bf a6 93 a1 a4 a8 a8 a6     ................
    3873:	b2 82 53 70 68 59 88 98 73 7d 85 48 47 76 63 67     ..SphY..s}.HGvcg
    3883:	a8 9f 7f 8e 98 9f a9 a9 a7 ae ab a3 a2 9c 96 90     ................
    3893:	8a 87 83 7e 84 7f 7f 7d 41 2e 52 47 43 7a 7c 5b     ...~...}A.RGCz|[
    38a3:	74 6a 3f 55 75 60 78 a5 8c 80 98 76 56 75 7c 6e     tj?Uu`x....vVu|n
    38b3:	95 ab 88 88 92 61 56 7f 6f 6b 9d 9b 76 8d 89 54     .....aV.ok..v..T
    38c3:	6a 7f 72 6b 67 64 5f 5e 5e 65 61 69 70 72 77 78     j.rkgd_^^eaiprwx
    38d3:	7b 78 79 7f 7e 82 89 8e 81 85 84 87 c1 bd a2 ba     {xy.~...........
    38e3:	a5 75 85 8f 7c 9d b9 9a 90 a2 73 5a 7c 7b 6e 65     .u..|.....sZ|{ne
    38f3:	5b 64 60 60 9e a7 86 a6 a4 6e 7f 9f 82 8e bd a1     [d``.....n......
    3903:	89 9d 82 5e 75 81 65 8d a7 81 7e 88 98 9a 9e a4     ...^u.e...~.....
    3913:	9d 9a 9f 9e 9d 9d 91 99 8d 93 7a 3e 50 51 3a 2f     ..........z>PQ:/
    3923:	2e 3b 3d 38 6d 97 7a 85 a2 7f 67 8f 8b 76 ad b3     .;=8m.z...g..v..
    3933:	8e 96 97 96 99 99 9b 9f 99 93 89 8f 6d 39 4d 57     ............m9MW
    3943:	42 69 8d 66 66 83 8b 8a 9a a8 a2 9f ac a5 96 91     Bi.ff...........
    3953:	5a 5b 76 68 60 55 51 4e 51 55 52 52 5e 61 70 7f     Z[vh`UQNQURR^ap.
    3963:	7d 7f 85 86 81 8b 8f 8e 97 93 9a 95 9b cf c4 ab     }...............
    3973:	b5 b5 b5 b5 aa a8 9e 8e 8f 83 84 64 48 62 62 52     ...........dHbbR
    3983:	4c 4a 56 55 4e 88 96 7e 92 9f a4 9f a5 a7 a6 a6     LJVUN..~........
    3993:	a3 9b a1 88 57 68 74 58 6c 8e 72 68 82 5e 4c 6c     ....WhtXl.rh.^Ll
    39a3:	70 65 62 64 63 60 68 96 9a 7f 95 96 69 75 8e 83     pebdc`h.....iu..
    39b3:	76 74 6c 68 5f 7c a5 8e 91 9a a2 a5 a9 af a9 ae     vtlh_|..........
    39c3:	a8 a0 9c 99 91 94 8b 8d 80 4a 4d 5e 4c 58 7f 75     .........JM^LX.u
    39d3:	67 79 64 49 63 70 60 83 98 7d 84 8f 95 96 99 9d     gydIcp`..}......
    39e3:	9b 9b 9c 93 9a 8d 57 5c 6e 51 60 8e 7c 6a 7d 67     ......W\nQ`.|j}g
    39f3:	46 65 75 67 90 aa 86 86 95 68 5a 74 71 6e 75 78     Feug.....hZtqnux
    3a03:	69 69 6a 61 5c 68 69 84 b5 af a6 ba a6 7f 92 9f     iija\hi.........
    3a13:	8b 7f 7f 79 6f 6e 91 a6 8f 97 ab 85 77 91 93 83     ...yon......w...
    3a23:	72 6f 66 61 65 68 68 6a 61 64 69 6a 75 70 91 b4     rofaehhjadijup..
    3a33:	9c 95 a1 a4 ad aa a4 a5 71 5d 6b 65 5c 4b 4d 5c     ........q]ke\KM\
    3a43:	56 63 9b 92 84 96 a6 af aa b6 b7 b2 a9 9e 98 96     Vc..............
    3a53:	6f 59 72 6c 5f 4f 4b 4d 4a 4d 59 5d 5c 65 67 6c     oYrl_OKMJMY]\egl
    3a63:	71 78 76 90 b6 a4 9a b0 99 7c 96 9b 86 a3 b1 94     qxv......|......
    3a73:	93 95 95 98 9f 99 9a a0 97 93 91 91 85 82 7f 85     ................
    3a83:	6c 45 56 60 51 67 87 74 69 77 83 89 8c 92 94 6c     lEV`Qg.tiw.....l
    3a93:	5b 75 6b 67 8c 8d 76 79 82 88 90 90 9a 88 5c 68     [ukg..vy......\h
    3aa3:	70 66 5d 5b 59 5b 56 78 97 81 83 91 9d a4 a2 a9     pf][Y[Vx........
    3ab3:	a6 7a 6b 80 75 6f 93 93 73 81 79 53 66 76 70 6a     .zk.uo..s.ySfvpj
    3ac3:	62 60 61 66 66 68 6b 6d 6c 70 71 79 7a 76 a8 b4     b`affhkmlpqyzv..
    3ad3:	a0 ab b2 b5 b7 ba b5 b3 ae a6 9c 9e 83 58 61 69     .............Xai
    3ae3:	56 6b 81 6d 6b 74 7e 84 87 8d 90 8c 8b 8e 87 86     Vk.mkt~.........
    3af3:	84 85 7d 80 7a 53 5a 64 5b 53 53 58 54 57 56 57     ..}.zSZd[SSXTWVW
    3b03:	5b 61 66 6d 72 76 7d 7c a5 b3 a2 aa b0 b4 b0 b3     [afmrv}|........
    3b13:	ad aa a9 9d 97 93 8e 8a 84 81 80 7b 7a 7e 78 77     ...........{z~xw
    3b23:	7b 79 79 7c 7c 7b 7e 80 7e 80 84 84 82 87 89 81     {yy||{~.~.......
    3b33:	81 7c 81 71 4b 57 60 59 55 53 55 5a 5b 5c 60 60     .|.qKW`YUSUZ[\``
    3b43:	64 67 6c 71 76 7c 7a 84 87 8a 88 92 bf b9 a7 b2     dglqv|z.........
    3b53:	bb b8 b2 b2 af aa 9f 9a 94 8c 89 8c 87 87 8e 6b     ...............k
    3b63:	5f 76 70 67 85 89 74 7c 86 8c 90 98 9d a1 a4 a8     _vpg..t|........
    3b73:	a6 a5 a7 a2 9e 9e 98 8b 87 81 79 79 51 3e 54 4e     ..........yyQ>TN
    3b83:	48 4c 52 51 56 5a 59 61 6e 68 7b a5 98 8b a2 97     HLRQVZYanh{.....
    3b93:	79 88 91 77 8e a7 8e 8d 92 95 97 96 98 96 96 95     y..w............
    3ba3:	8b 89 87 5f 61 70 66 5e 5b 5b 60 56 68 94 87 84     ..._apf^[[`Vh...
    3bb3:	90 9b a4 a1 a0 ab 8b 71 86 7e 70 69 64 65 5a 61     .......q.~pideZa
    3bc3:	8a 8a 79 91 8f 6f 7b 88 80 79 76 74 70 71 70 72     ..y..o{..yvtpqpr
    3bd3:	6d 71 76 72 72 78 7e 7d 81 80 86 81 84 b1 ae 96     mqvrrx~}........
    3be3:	a7 a2 7f 89 97 8b 80 7b 7b 74 71 6d 6d 6f 6f 72     .......{{tqmmoor
    3bf3:	73 74 76 77 7a 7c 7d 7e 81 82 83 84 84 85 85 86     stvwz|}~........
    3c03:	86 86 87 86 86 87 86 86 86 85 85 85 85 84 84 84     ................
    3c13:	84 84 84 83 82 82 82 82 82 81 81 81 81 82 82 82     ................
    3c23:	82 83 83 83 83 83 83 83 83 82 82 82 82 82 82 82     ................
    3c33:	82 82 82 82 82 82 82 82 83 82 82 82 82 82 82 82     ................
    3c43:	81 81 82 81 81 80 81 82 80 81 82 81 81 82 83 81     ................
    3c53:	82 83 83 83 83 83 81 81 82 84 84 82 82 83 84 84     ................
    3c63:	83 7e 7f 84 85 80 7f 7f 84 82 80 82 74 a9 8f 5e     .~..........t..^
    3c73:	83 81 7b 7b 78 7f 72 84 c0 b2 9e ac b9 be b8 b4     ..{{x.r.........
    3c83:	bd 92 64 7b 76 59 7f 97 73 6f 79 86 8e 87 93 96     ..d{vY..soy.....
    3c93:	5c 57 6d 62 58 4a 4b 49 41 4b 56 4c 5c 5d 7f ae     \WmbXJKIAKVL\]..
    3ca3:	9f 9d a8 8f 6c 82 92 87 9f af 89 85 91 65 60 7c     ....l........e`|
    3cb3:	6d 6c 9c 93 6e 88 7c 51 67 77 66 65 59 56 60 56     ml..n.|QgwfeYV`V
    3cc3:	80 a6 8d 8e a3 7d 6d 8e 82 7e 70 66 6c 60 5b 66     .....}m..~pfl`[f
    3cd3:	62 6c 6b 7b b7 a7 9a ac ac b5 b5 b2 b7 af aa a2     blk{............
    3ce3:	93 97 63 47 63 5b 50 41 40 4a 46 49 53 4f 54 53     ..cGc[PA@JFISOTS
    3cf3:	69 a2 9a 90 af be bf c3 c6 c1 92 70 83 77 57 80     i..........p.wW.
    3d03:	8e 6e 77 7d 83 91 86 87 8a 4c 46 67 53 5b 8d 83     .nw}.....LFgS[..
    3d13:	70 89 73 4c 6d 7c 62 89 a8 87 84 9d 76 57 7f 78     p.sLm|b.....vW.x
    3d23:	64 9a a7 7e 86 95 93 94 9d a7 9e 9c a3 97 9e 83     d..~............
    3d33:	52 63 67 57 4b 47 41 3f 46 4e 4f 50 5c 5e 97 b0     RcgWKGA?FNOP\^..
    3d43:	8e a7 b4 7c 7c 99 88 80 7d 71 73 61 7a ac 96 8e     ...||...}qsaz...
    3d53:	9d a5 a6 ae ab b0 85 63 7f 74 64 58 56 54 4b 4a     .......c.tdXVTKJ
    3d63:	52 52 5b 5b 6a a6 a7 90 ab a5 75 8a 9a 88 80 79     RR[[j.....u....y
    3d73:	72 6a 6a 6a 66 64 70 61 a1 a7 50 72 8c 81 7a 7e     rjjjfdpa..Pr..z~
    3d83:	7e 78 7a 78 79 79 7c 78 79 7b 7b 7c 7d 7c 7a 80     ~xzxyy|xy{{|}|z.
    3d93:	81 7f 83 7f 7f 81 7f 82 84 85 84 83 84 85 84 85     ................
    3da3:	84 84 85 83 84 84 83 83 86 84 83 84 82 83 85 84     ................
    3db3:	85 84 84 86 85 83 83 86 86 82 85 85 83 83 83 85     ................
    3dc3:	84 83 84 85 83 83 84 84 83 82 85 83 82 82 82 84     ................
    3dd3:	84 84 82 83 85 84 83 83 83 82 82 82 82 82 81 82     ................
    3de3:	82 81 83 83 83 80 81 83 82 83 82 81 82 82 82 82     ................
    3df3:	82 82 82 83 82 81 82 81 82 83 81 81 80 82 81 81     ................
    3e03:	81 81 81 81 82 81 81 81 81 81 80 81 81 81 81 80     ................
    3e13:	81 81 81 81 81 81 81 81 80 81 81 80 80 81 81 81     ................
    3e23:	81 80 81 80 80 80 80 80 80 80 80 80 80 80 80 80     ................
    3e33:	80 80 80 80 80 80 80 80 80 80 80 80 80 80 80 80     ................
    3e43:	80 80 80 80 80 80 80 80 80 80 80 80 80 80 80 80     ................
    3e53:	80 80 80 80 80 80 80 80 80 80 80 80 80 80 80 80     ................
    3e63:	80 80 80 80 80 80 80 80 80 80 80 80 80 80 80 80     ................
    3e73:	80 80 80 80 80 80 80 80 80 80 80 80 80 80 80 80     ................
    3e83:	80 80 80 80 80 80 7f 7f 7f 7f 7f 7f 7f 7f 7f 7f     ................
    3e93:	7f 7f 7f 7f 7f 7f 7f 7f 7f 7f 7f 7f 7f 7f 7f 7f     ................
    3ea3:	7f 7f 7f 7f 7f 7f 7f 7f 7f 7f 7f 7f 7f 7f 7f 7f     ................
    3eb3:	7f 7f 7f 7f 7f 7f 7f 7f 7f 7f 7f 7f 7f 7f 7f 7f     ................
    3ec3:	7f 7f 7f 7f 7f 7f 7f 7f 7f 7f 7f 7f 7f 7f 7f 7f     ................
    3ed3:	7f 7f 7f 7f 7f 7f 7f 7f 7f 7f 7f 7f 7f 7f 7f 7f     ................
    3ee3:	7f 7f 7f 7f 7f 7f 7f 7f 7f 7f 7f 7f 7f 7f 7f 7f     ................
    3ef3:	7f 7f 7f 7f 7f 7f 7f 7f 7f 7f 7f 7f 7f 7f 7f 7f     ................
    3f03:	7f 7f 7f 7f 7f 7f 7f 7f 7f 7f 7f 7f 7f 7f 7f 7f     ................
    3f13:	7f 7f 7f 7f 7f 7f 7f 7f 7f 7f 7f 7f 7f 7f 7f 7f     ................
    3f23:	7f 7f 7f 7f 7f 7f 7f 7f 7f 7f 7f 7f 7f 7f 7f 7f     ................
    3f33:	4c 49 53 54 50 00 00 00 49 4e 46 4f 49 50 52 44     LISTP...INFOIPRD
    3f43:	0a 00 00 00 61 74 61 72 69 32 36 30 30 00 49 41     ....atari2600.IA
    3f53:	52 54 0e 00 00 00 76 69 6e 74 61 67 65 20 73 6f     RT....vintage so
    3f63:	75 6e 64 00 49 47 4e 52 06 00 00 00 4f 74 68 65     und.IGNR....Othe
    3f73:	72 00 49 4e 41 4d 0e 00 00 00 73 6f 6e 73 20 76     r.INAM....sons v
    3f83:	69 6e 74 61 67 65 73 00 44 49 53 50 12 00 00 00     intages.DISP....
    3f93:	01 00 00 00 73 6f 6e 73 20 76 69 6e 74 61 67 65     ....sons vintage
    3fa3:	73 00 62 65 78 74 5e 03 00 00 00 00 00 00 00 00     s.bext^.........
	...
    4107:	01 00 00 00 00 00 00 00 00 00 00 00 00 00 00 00     ................
	...
    4207:	41 3d 4d 69 63 72 6f 73 6f 66 74 20 50 43 4d 20     A=Microsoft PCM 
    4217:	46 6f 72 6d 61 74 20 46 3d 34 34 31 30 30 20 57     Format F=44100 W
    4227:	3d 31 36 20 4d 3d 73 74 65 72 65 6f 0d 0a 41 3d     =16 M=stereo..A=
    4237:	4d 69 63 72 6f 73 6f 66 74 20 50 43 4d 20 46 6f     Microsoft PCM Fo
    4247:	72 6d 61 74 20 46 3d 34 34 31 30 30 20 57 3d 31     rmat F=44100 W=1
    4257:	36 20 4d 3d 73 74 65 72 65 6f 0d 0a 41 3d 4d 69     6 M=stereo..A=Mi
    4267:	63 72 6f 73 6f 66 74 20 50 43 4d 20 46 6f 72 6d     crosoft PCM Form
    4277:	61 74 20 46 3d 34 34 31 30 30 20 57 3d 31 36 20     at F=44100 W=16 
    4287:	4d 3d 73 74 65 72 65 6f 0d 0a 41 3d 4d 69 63 72     M=stereo..A=Micr
    4297:	6f 73 6f 66 74 20 50 43 4d 20 46 6f 72 6d 61 74     osoft PCM Format
    42a7:	20 46 3d 34 34 31 30 30 20 57 3d 31 36 20 4d 3d      F=44100 W=16 M=
    42b7:	73 74 65 72 65 6f 0d 0a 41 3d 4d 69 63 72 6f 73     stereo..A=Micros
    42c7:	6f 66 74 20 50 43 4d 20 46 6f 72 6d 61 74 20 46     oft PCM Format F
    42d7:	3d 34 34 31 30 30 20 57 3d 31 36 20 4d 3d 73 74     =44100 W=16 M=st
    42e7:	65 72 65 6f 0d 0a 41 3d 4d 69 63 72 6f 73 6f 66     ereo..A=Microsof
    42f7:	74 20 50 43 4d 20 46 6f 72 6d 61 74 20 46 3d 34     t PCM Format F=4
    4307:	34 31 30 20 63 61 72 74 00 08 00 00 00 00 00 00     410 cart........
    4317:	73 6f 6e 73 20 76 69 6e 74 61 67 65 73 00 00 00     sons vintages...
	...
    4357:	76 69 6e 74 61 67 65 20 73 6f 75 6e 64 00 00 00     vintage sound...
	...

000043e0 <__ctors_end>:
    43e0:	11 24       	eor	r1, r1
    43e2:	1f be       	out	0x3f, r1	; 63
    43e4:	cf ef       	ldi	r28, 0xFF	; 255
    43e6:	d0 e1       	ldi	r29, 0x10	; 16
    43e8:	de bf       	out	0x3e, r29	; 62
    43ea:	cd bf       	out	0x3d, r28	; 61

000043ec <__do_copy_data>:
    43ec:	12 e0       	ldi	r17, 0x02	; 2
    43ee:	a0 e0       	ldi	r26, 0x00	; 0
    43f0:	b1 e0       	ldi	r27, 0x01	; 1
    43f2:	ea e7       	ldi	r30, 0x7A	; 122
    43f4:	f2 e6       	ldi	r31, 0x62	; 98
    43f6:	00 e0       	ldi	r16, 0x00	; 0
    43f8:	0b bf       	out	0x3b, r16	; 59
    43fa:	02 c0       	rjmp	.+4      	; 0x4400 <__do_copy_data+0x14>
    43fc:	07 90       	elpm	r0, Z+
    43fe:	0d 92       	st	X+, r0
    4400:	a0 3a       	cpi	r26, 0xA0	; 160
    4402:	b1 07       	cpc	r27, r17
    4404:	d9 f7       	brne	.-10     	; 0x43fc <__do_copy_data+0x10>

00004406 <__do_clear_bss>:
    4406:	12 e0       	ldi	r17, 0x02	; 2
    4408:	a0 ea       	ldi	r26, 0xA0	; 160
    440a:	b2 e0       	ldi	r27, 0x02	; 2
    440c:	01 c0       	rjmp	.+2      	; 0x4410 <.do_clear_bss_start>

0000440e <.do_clear_bss_loop>:
    440e:	1d 92       	st	X+, r1

00004410 <.do_clear_bss_start>:
    4410:	a9 3d       	cpi	r26, 0xD9	; 217
    4412:	b1 07       	cpc	r27, r17
    4414:	e1 f7       	brne	.-8      	; 0x440e <.do_clear_bss_loop>
    4416:	0e 94 63 27 	call	0x4ec6	; 0x4ec6 <main>
    441a:	0c 94 3b 31 	jmp	0x6276	; 0x6276 <_exit>

0000441e <__bad_interrupt>:
    441e:	0c 94 00 00 	jmp	0	; 0x0 <__vectors>

00004422 <enable_sound>:
*/
void enable_sound(void)
{
    
    /* Set buzzer pins as output*/
    DDRE  |=  (1 << PE4) | (1 << PE5);
    4422:	e2 e2       	ldi	r30, 0x22	; 34
    4424:	f0 e0       	ldi	r31, 0x00	; 0
    4426:	80 81       	ld	r24, Z
    4428:	80 63       	ori	r24, 0x30	; 48
    442a:	80 83       	st	Z, r24
    
    /* Timer1 used for sampling sound on 8kHz*/
    // Set Timer1 to CTC mode
    // WGM13:0 = b0100
    TCCR1A &= ~((1 << WGM11) | (1 << WGM10));
    442c:	ef e4       	ldi	r30, 0x4F	; 79
    442e:	f0 e0       	ldi	r31, 0x00	; 0
    4430:	80 81       	ld	r24, Z
    4432:	8c 7f       	andi	r24, 0xFC	; 252
    4434:	80 83       	st	Z, r24
    TCCR1B |=  (1 << WGM12);
    4436:	ee e4       	ldi	r30, 0x4E	; 78
    4438:	f0 e0       	ldi	r31, 0x00	; 0
    443a:	80 81       	ld	r24, Z
    443c:	88 60       	ori	r24, 0x08	; 8
    443e:	80 83       	st	Z, r24
    TCCR1B &= ~(1 << WGM13);
    4440:	80 81       	ld	r24, Z
    4442:	8f 7e       	andi	r24, 0xEF	; 239
    4444:	80 83       	st	Z, r24
    // Set Timer1 no prescaler 16 000 000 Hz CS12:0 = 001
    TCCR1B |=  (1 << CS10);
    4446:	80 81       	ld	r24, Z
    4448:	81 60       	ori	r24, 0x01	; 1
    444a:	80 83       	st	Z, r24
    TCCR1B &= ~((1 << CS12) | (1 << CS11));
    444c:	80 81       	ld	r24, Z
    444e:	89 7f       	andi	r24, 0xF9	; 249
    4450:	80 83       	st	Z, r24
    // Set OCR1A register value to F_CPU / SAMPLE_RATE 16e6 / 8000 (corresponds to 8kHz)
    OCR1A = F_CPU/SAMPLE_RATE;
    4452:	80 ed       	ldi	r24, 0xD0	; 208
    4454:	97 e0       	ldi	r25, 0x07	; 7
    4456:	9b bd       	out	0x2b, r25	; 43
    4458:	8a bd       	out	0x2a, r24	; 42
    // Enable per-sample interrupt for Timer1
    TIMSK |= (1 << OCIE1A);
    445a:	e7 e5       	ldi	r30, 0x57	; 87
    445c:	f0 e0       	ldi	r31, 0x00	; 0
    445e:	80 81       	ld	r24, Z
    4460:	80 61       	ori	r24, 0x10	; 16
    4462:	80 83       	st	Z, r24
        
    /* Timer3 is used to generate sound using Fast PWM output */
    // Set Timer3 to Fast PWM 8-bit mode
    // WGM33:0 = b0101
    TCCR3A |=  (1<<WGM30);
    4464:	eb e8       	ldi	r30, 0x8B	; 139
    4466:	f0 e0       	ldi	r31, 0x00	; 0
    4468:	80 81       	ld	r24, Z
    446a:	81 60       	ori	r24, 0x01	; 1
    446c:	80 83       	st	Z, r24
    TCCR3A &= ~(1<<WGM31);
    446e:	80 81       	ld	r24, Z
    4470:	8d 7f       	andi	r24, 0xFD	; 253
    4472:	80 83       	st	Z, r24
    TCCR3B |=  (1<<WGM32);
    4474:	aa e8       	ldi	r26, 0x8A	; 138
    4476:	b0 e0       	ldi	r27, 0x00	; 0
    4478:	8c 91       	ld	r24, X
    447a:	88 60       	ori	r24, 0x08	; 8
    447c:	8c 93       	st	X, r24
    TCCR3B &= ~(1<<WGM33);
    447e:	8c 91       	ld	r24, X
    4480:	8f 7e       	andi	r24, 0xEF	; 239
    4482:	8c 93       	st	X, r24
    // Do non-inverting PWM on OC3B
    // COM3B1:0 = b10
    TCCR3A &= ~(1<<COM3B0);
    4484:	80 81       	ld	r24, Z
    4486:	8f 7e       	andi	r24, 0xEF	; 239
    4488:	80 83       	st	Z, r24
    TCCR3A |= (1<<COM3B1);
    448a:	80 81       	ld	r24, Z
    448c:	80 62       	ori	r24, 0x20	; 32
    448e:	80 83       	st	Z, r24
    // And inverting on the other PIN
    // COM3C1:0 = b11
    TCCR3A |= (1<<COM3C1) | (1<<COM3C0);
    4490:	80 81       	ld	r24, Z
    4492:	8c 60       	ori	r24, 0x0C	; 12
    4494:	80 83       	st	Z, r24
    // No prescalar for Timer3
    // CS32:0 = b001
    TCCR3B |=  (1<<CS30); 
    4496:	8c 91       	ld	r24, X
    4498:	81 60       	ori	r24, 0x01	; 1
    449a:	8c 93       	st	X, r24
    TCCR3B &= ~((1<<CS32) |(1<<CS31)); 
    449c:	8c 91       	ld	r24, X
    449e:	89 7f       	andi	r24, 0xF9	; 249
    44a0:	8c 93       	st	X, r24
    // Set initial pulse width value
    OCR3B = 0x00; // 128 
    44a2:	10 92 85 00 	sts	0x0085, r1
    44a6:	10 92 84 00 	sts	0x0084, r1
    OCR3C = 0x00; // 128 
    44aa:	10 92 83 00 	sts	0x0083, r1
    44ae:	10 92 82 00 	sts	0x0082, r1

    // Set the other pin of the buzzer to 0 always!
    //PORTE &= ~(1 << PE5);
    //PORTE |= (1 << PE5);
    
    sample = 0;
    44b2:	10 92 d7 02 	sts	0x02D7, r1
    44b6:	10 92 d6 02 	sts	0x02D6, r1
    //current_sound = 0;
}
    44ba:	08 95       	ret

000044bc <disable_sound>:
    Stop Timers and disable Timer1 interrupt and mute the buzzer!
*/
void disable_sound(void)
{
    // Disable per-sample interrupt for Timer1
    TIMSK &= ~(1 << OCIE1A);
    44bc:	e7 e5       	ldi	r30, 0x57	; 87
    44be:	f0 e0       	ldi	r31, 0x00	; 0
    44c0:	80 81       	ld	r24, Z
    44c2:	8f 7e       	andi	r24, 0xEF	; 239
    44c4:	80 83       	st	Z, r24

    // Disable the per-sample timer completely.
    TCCR1B &= ~(1<<CS10);
    44c6:	ee e4       	ldi	r30, 0x4E	; 78
    44c8:	f0 e0       	ldi	r31, 0x00	; 0
    44ca:	80 81       	ld	r24, Z
    44cc:	8e 7f       	andi	r24, 0xFE	; 254
    44ce:	80 83       	st	Z, r24

    // Disable the PWM timer.
    TCCR3B &= ~(1<<CS10);
    44d0:	ea e8       	ldi	r30, 0x8A	; 138
    44d2:	f0 e0       	ldi	r31, 0x00	; 0
    44d4:	80 81       	ld	r24, Z
    44d6:	8e 7f       	andi	r24, 0xFE	; 254
    44d8:	80 83       	st	Z, r24
    
    // Write low to the output pins OC3B, OC3C
    PORTE &= ~(1 << PE4);  
    44da:	e3 e2       	ldi	r30, 0x23	; 35
    44dc:	f0 e0       	ldi	r31, 0x00	; 0
    44de:	80 81       	ld	r24, Z
    44e0:	8f 7e       	andi	r24, 0xEF	; 239
    44e2:	80 83       	st	Z, r24
    PORTE &= ~(1 << PE5);
    44e4:	80 81       	ld	r24, Z
    44e6:	8f 7d       	andi	r24, 0xDF	; 223
    44e8:	80 83       	st	Z, r24
    sample = 0;
    44ea:	10 92 d7 02 	sts	0x02D7, r1
    44ee:	10 92 d6 02 	sts	0x02D6, r1
}
    44f2:	08 95       	ret

000044f4 <__vector_12>:
#define SOUND_CRASH  2

int sound_loop;
int sound_type;     // Only Music and Crash sounds are currently supported!

ISR(TIMER1_COMPA_vect) {
    44f4:	1f 92       	push	r1
    44f6:	0f 92       	push	r0
    44f8:	0f b6       	in	r0, 0x3f	; 63
    44fa:	0f 92       	push	r0
    44fc:	0b b6       	in	r0, 0x3b	; 59
    44fe:	0f 92       	push	r0
    4500:	11 24       	eor	r1, r1
    4502:	2f 93       	push	r18
    4504:	3f 93       	push	r19
    4506:	4f 93       	push	r20
    4508:	5f 93       	push	r21
    450a:	6f 93       	push	r22
    450c:	7f 93       	push	r23
    450e:	8f 93       	push	r24
    4510:	9f 93       	push	r25
    4512:	af 93       	push	r26
    4514:	bf 93       	push	r27
    4516:	ef 93       	push	r30
    4518:	ff 93       	push	r31

    int loop_length = 0;

    // Determine maximum samples based on sound_type
    if(sound_type == SOUND_MUSIC)
    451a:	80 91 a6 02 	lds	r24, 0x02A6
    451e:	90 91 a7 02 	lds	r25, 0x02A7
    4522:	81 30       	cpi	r24, 0x01	; 1
    4524:	91 05       	cpc	r25, r1
    4526:	19 f4       	brne	.+6      	; 0x452e <__vector_12+0x3a>
    4528:	24 e8       	ldi	r18, 0x84	; 132
    452a:	35 e3       	ldi	r19, 0x35	; 53
    452c:	05 c0       	rjmp	.+10     	; 0x4538 <__vector_12+0x44>
        loop_length = sound_music_length;
    else if (sound_type == SOUND_CRASH)
    452e:	02 97       	sbiw	r24, 0x02	; 2
    4530:	09 f0       	breq	.+2      	; 0x4534 <__vector_12+0x40>
    4532:	6e c0       	rjmp	.+220    	; 0x4610 <__vector_12+0x11c>
    4534:	2c ea       	ldi	r18, 0xAC	; 172
    4536:	3d e0       	ldi	r19, 0x0D	; 13
        loop_length = sound_crash_length;
    
    // Check if at the end of the sound
    if(sample>=loop_length)
    4538:	80 91 d6 02 	lds	r24, 0x02D6
    453c:	90 91 d7 02 	lds	r25, 0x02D7
    4540:	82 17       	cp	r24, r18
    4542:	93 07       	cpc	r25, r19
    4544:	68 f0       	brcs	.+26     	; 0x4560 <__vector_12+0x6c>
    {
        // If loop flag set, repeat
        if(sound_loop)
    4546:	80 91 c3 02 	lds	r24, 0x02C3
    454a:	90 91 c4 02 	lds	r25, 0x02C4
    454e:	89 2b       	or	r24, r25
    4550:	29 f0       	breq	.+10     	; 0x455c <__vector_12+0x68>
            sample=0;
    4552:	10 92 d7 02 	sts	0x02D7, r1
    4556:	10 92 d6 02 	sts	0x02D6, r1
    455a:	02 c0       	rjmp	.+4      	; 0x4560 <__vector_12+0x6c>
        else
            disable_sound(); // Otherwise, stop the timers
    455c:	0e 94 5e 22 	call	0x44bc	; 0x44bc <disable_sound>
    }

    // Play different sound according to sound_type
    if(sound_type == SOUND_MUSIC)
    4560:	80 91 a6 02 	lds	r24, 0x02A6
    4564:	90 91 a7 02 	lds	r25, 0x02A7
    4568:	81 30       	cpi	r24, 0x01	; 1
    456a:	91 05       	cpc	r25, r1
    456c:	b9 f4       	brne	.+46     	; 0x459c <__vector_12+0xa8>
    {
        OCR3BL = pgm_read_byte(&sound_music_data[sample]);
    456e:	80 91 d6 02 	lds	r24, 0x02D6
    4572:	90 91 d7 02 	lds	r25, 0x02D7
    4576:	2c e8       	ldi	r18, 0x8C	; 140
    4578:	30 e0       	ldi	r19, 0x00	; 0
    457a:	f9 01       	movw	r30, r18
    457c:	e8 0f       	add	r30, r24
    457e:	f9 1f       	adc	r31, r25
    4580:	e4 91       	lpm	r30, Z+
    4582:	e0 93 84 00 	sts	0x0084, r30
        OCR3CL = pgm_read_byte(&sound_music_data[sample]);
    4586:	80 91 d6 02 	lds	r24, 0x02D6
    458a:	90 91 d7 02 	lds	r25, 0x02D7
    458e:	f9 01       	movw	r30, r18
    4590:	e8 0f       	add	r30, r24
    4592:	f9 1f       	adc	r31, r25
    4594:	e4 91       	lpm	r30, Z+
    4596:	e0 93 82 00 	sts	0x0082, r30
    459a:	1e c0       	rjmp	.+60     	; 0x45d8 <__vector_12+0xe4>
    }
    else if(sound_type == SOUND_CRASH)
    459c:	02 97       	sbiw	r24, 0x02	; 2
    459e:	b9 f4       	brne	.+46     	; 0x45ce <__vector_12+0xda>
    {
        OCR3BL = pgm_read_byte(&sound_crash_data[sample]);
    45a0:	80 91 d6 02 	lds	r24, 0x02D6
    45a4:	90 91 d7 02 	lds	r25, 0x02D7
    45a8:	23 e3       	ldi	r18, 0x33	; 51
    45aa:	36 e3       	ldi	r19, 0x36	; 54
    45ac:	f9 01       	movw	r30, r18
    45ae:	e8 0f       	add	r30, r24
    45b0:	f9 1f       	adc	r31, r25
    45b2:	e4 91       	lpm	r30, Z+
    45b4:	e0 93 84 00 	sts	0x0084, r30
        OCR3CL = pgm_read_byte(&sound_crash_data[sample]);
    45b8:	80 91 d6 02 	lds	r24, 0x02D6
    45bc:	90 91 d7 02 	lds	r25, 0x02D7
    45c0:	f9 01       	movw	r30, r18
    45c2:	e8 0f       	add	r30, r24
    45c4:	f9 1f       	adc	r31, r25
    45c6:	e4 91       	lpm	r30, Z+
    45c8:	e0 93 82 00 	sts	0x0082, r30
    45cc:	05 c0       	rjmp	.+10     	; 0x45d8 <__vector_12+0xe4>
    }
    else
    {
        OCR3BL = 0x00;
    45ce:	10 92 84 00 	sts	0x0084, r1
        OCR3CL = 0xFF;
    45d2:	8f ef       	ldi	r24, 0xFF	; 255
    45d4:	80 93 82 00 	sts	0x0082, r24
    }
    
    // Next sample
    ++sample;
    45d8:	80 91 d6 02 	lds	r24, 0x02D6
    45dc:	90 91 d7 02 	lds	r25, 0x02D7
    45e0:	01 96       	adiw	r24, 0x01	; 1
    45e2:	90 93 d7 02 	sts	0x02D7, r25
    45e6:	80 93 d6 02 	sts	0x02D6, r24
}
    45ea:	ff 91       	pop	r31
    45ec:	ef 91       	pop	r30
    45ee:	bf 91       	pop	r27
    45f0:	af 91       	pop	r26
    45f2:	9f 91       	pop	r25
    45f4:	8f 91       	pop	r24
    45f6:	7f 91       	pop	r23
    45f8:	6f 91       	pop	r22
    45fa:	5f 91       	pop	r21
    45fc:	4f 91       	pop	r20
    45fe:	3f 91       	pop	r19
    4600:	2f 91       	pop	r18
    4602:	0f 90       	pop	r0
    4604:	0b be       	out	0x3b, r0	; 59
    4606:	0f 90       	pop	r0
    4608:	0f be       	out	0x3f, r0	; 63
    460a:	0f 90       	pop	r0
    460c:	1f 90       	pop	r1
    460e:	18 95       	reti
        loop_length = sound_music_length;
    else if (sound_type == SOUND_CRASH)
        loop_length = sound_crash_length;
    
    // Check if at the end of the sound
    if(sample>=loop_length)
    4610:	80 91 d6 02 	lds	r24, 0x02D6
    4614:	90 91 d7 02 	lds	r25, 0x02D7
    4618:	96 cf       	rjmp	.-212    	; 0x4546 <__vector_12+0x52>

0000461a <play_loop>:
}

// Play loop music
void play_loop(void)
{
    disable_sound();
    461a:	0e 94 5e 22 	call	0x44bc	; 0x44bc <disable_sound>
    sound_loop = 1;
    461e:	81 e0       	ldi	r24, 0x01	; 1
    4620:	90 e0       	ldi	r25, 0x00	; 0
    4622:	90 93 c4 02 	sts	0x02C4, r25
    4626:	80 93 c3 02 	sts	0x02C3, r24
    sound_type = SOUND_MUSIC;
    462a:	90 93 a7 02 	sts	0x02A7, r25
    462e:	80 93 a6 02 	sts	0x02A6, r24
    enable_sound();
    4632:	0e 94 11 22 	call	0x4422	; 0x4422 <enable_sound>
}
    4636:	08 95       	ret

00004638 <play_crash>:

// Play crash sound
void play_crash(void)
{
    disable_sound();
    4638:	0e 94 5e 22 	call	0x44bc	; 0x44bc <disable_sound>
    sound_loop = 0;
    463c:	10 92 c4 02 	sts	0x02C4, r1
    4640:	10 92 c3 02 	sts	0x02C3, r1
    sound_type = SOUND_CRASH;
    4644:	82 e0       	ldi	r24, 0x02	; 2
    4646:	90 e0       	ldi	r25, 0x00	; 0
    4648:	90 93 a7 02 	sts	0x02A7, r25
    464c:	80 93 a6 02 	sts	0x02A6, r24
    enable_sound();
    4650:	0e 94 11 22 	call	0x4422	; 0x4422 <enable_sound>
}
    4654:	08 95       	ret

00004656 <get_buttons>:

/* Read user inputs: Right, Left and Jump! */
void get_buttons(void)
{
    // Button 1 moves the car to Right Lane
    if(!(PINA & 0b00000001))
    4656:	c8 99       	sbic	0x19, 0	; 25
    4658:	04 c0       	rjmp	.+8      	; 0x4662 <get_buttons+0xc>
    {
        car_pos = RIGHTLANE;
    465a:	81 e0       	ldi	r24, 0x01	; 1
    465c:	80 93 d8 02 	sts	0x02D8, r24
    4660:	05 c0       	rjmp	.+10     	; 0x466c <get_buttons+0x16>
    }
    // Mutually exclusive checking, so only one button takes precedency
    else if(!(PINA & 0b00010000))
    4662:	cc 99       	sbic	0x19, 4	; 25
    4664:	03 c0       	rjmp	.+6      	; 0x466c <get_buttons+0x16>
    {
        // Button 5 moves the car to Left Lane
        car_pos = LEFTLANE;
    4666:	82 e0       	ldi	r24, 0x02	; 2
    4668:	80 93 d8 02 	sts	0x02D8, r24
    //
    // Note: this function is called 250 times per second!
    // the acceleration is incremented linearly and slowly,
    //
    // Button 2 moves the car faster (accelerate) -ve step duration
    if(!(PINA & 0b00000010))
    466c:	c9 99       	sbic	0x19, 1	; 25
    466e:	1d c0       	rjmp	.+58     	; 0x46aa <get_buttons+0x54>
    {
        if(car_accel>MINCARACCEL)
    4670:	80 91 a2 02 	lds	r24, 0x02A2
    4674:	90 91 a3 02 	lds	r25, 0x02A3
    4678:	a0 91 a4 02 	lds	r26, 0x02A4
    467c:	b0 91 a5 02 	lds	r27, 0x02A5
    4680:	89 37       	cpi	r24, 0x79	; 121
    4682:	2c ee       	ldi	r18, 0xEC	; 236
    4684:	92 07       	cpc	r25, r18
    4686:	2f ef       	ldi	r18, 0xFF	; 255
    4688:	a2 07       	cpc	r26, r18
    468a:	2f ef       	ldi	r18, 0xFF	; 255
    468c:	b2 07       	cpc	r27, r18
    468e:	0c f4       	brge	.+2      	; 0x4692 <get_buttons+0x3c>
    4690:	50 c0       	rjmp	.+160    	; 0x4732 <get_buttons+0xdc>
            car_accel -= 10;
    4692:	0a 97       	sbiw	r24, 0x0a	; 10
    4694:	a1 09       	sbc	r26, r1
    4696:	b1 09       	sbc	r27, r1
    4698:	80 93 a2 02 	sts	0x02A2, r24
    469c:	90 93 a3 02 	sts	0x02A3, r25
    46a0:	a0 93 a4 02 	sts	0x02A4, r26
    46a4:	b0 93 a5 02 	sts	0x02A5, r27
    46a8:	44 c0       	rjmp	.+136    	; 0x4732 <get_buttons+0xdc>
    }
    // Mutually exclusive checking, so only one button takes precedency
    else if(!(PINA & 0b00001000))
    46aa:	cb 99       	sbic	0x19, 3	; 25
    46ac:	1c c0       	rjmp	.+56     	; 0x46e6 <get_buttons+0x90>
    {
        // Button 4 moves the car slower (brake) +ve step duration
        if(car_accel<MAXCARACCEL)
    46ae:	80 91 a2 02 	lds	r24, 0x02A2
    46b2:	90 91 a3 02 	lds	r25, 0x02A3
    46b6:	a0 91 a4 02 	lds	r26, 0x02A4
    46ba:	b0 91 a5 02 	lds	r27, 0x02A5
    46be:	88 38       	cpi	r24, 0x88	; 136
    46c0:	23 e1       	ldi	r18, 0x13	; 19
    46c2:	92 07       	cpc	r25, r18
    46c4:	20 e0       	ldi	r18, 0x00	; 0
    46c6:	a2 07       	cpc	r26, r18
    46c8:	20 e0       	ldi	r18, 0x00	; 0
    46ca:	b2 07       	cpc	r27, r18
    46cc:	94 f5       	brge	.+100    	; 0x4732 <get_buttons+0xdc>
            car_accel += 10;
    46ce:	0a 96       	adiw	r24, 0x0a	; 10
    46d0:	a1 1d       	adc	r26, r1
    46d2:	b1 1d       	adc	r27, r1
    46d4:	80 93 a2 02 	sts	0x02A2, r24
    46d8:	90 93 a3 02 	sts	0x02A3, r25
    46dc:	a0 93 a4 02 	sts	0x02A4, r26
    46e0:	b0 93 a5 02 	sts	0x02A5, r27
    46e4:	26 c0       	rjmp	.+76     	; 0x4732 <get_buttons+0xdc>
    }
    else
    {
        // Ramping down/up to Normal speed 
        if(car_accel>0)
    46e6:	80 91 a2 02 	lds	r24, 0x02A2
    46ea:	90 91 a3 02 	lds	r25, 0x02A3
    46ee:	a0 91 a4 02 	lds	r26, 0x02A4
    46f2:	b0 91 a5 02 	lds	r27, 0x02A5
    46f6:	18 16       	cp	r1, r24
    46f8:	19 06       	cpc	r1, r25
    46fa:	1a 06       	cpc	r1, r26
    46fc:	1b 06       	cpc	r1, r27
    46fe:	64 f4       	brge	.+24     	; 0x4718 <get_buttons+0xc2>
            car_accel -= 1;
    4700:	01 97       	sbiw	r24, 0x01	; 1
    4702:	a1 09       	sbc	r26, r1
    4704:	b1 09       	sbc	r27, r1
    4706:	80 93 a2 02 	sts	0x02A2, r24
    470a:	90 93 a3 02 	sts	0x02A3, r25
    470e:	a0 93 a4 02 	sts	0x02A4, r26
    4712:	b0 93 a5 02 	sts	0x02A5, r27
    4716:	0d c0       	rjmp	.+26     	; 0x4732 <get_buttons+0xdc>
        else if(car_accel<0)
    4718:	bb 23       	and	r27, r27
    471a:	5c f4       	brge	.+22     	; 0x4732 <get_buttons+0xdc>
            car_accel += 1;
    471c:	01 96       	adiw	r24, 0x01	; 1
    471e:	a1 1d       	adc	r26, r1
    4720:	b1 1d       	adc	r27, r1
    4722:	80 93 a2 02 	sts	0x02A2, r24
    4726:	90 93 a3 02 	sts	0x02A3, r25
    472a:	a0 93 a4 02 	sts	0x02A4, r26
    472e:	b0 93 a5 02 	sts	0x02A5, r27
    }

    
    // Jump when button released after it was pressed, to avoid Flying Car!
    if(!(PINA & 0b00000100))
    4732:	ca 99       	sbic	0x19, 2	; 25
    4734:	07 c0       	rjmp	.+14     	; 0x4744 <get_buttons+0xee>
    {
        jump_down = 1;
    4736:	81 e0       	ldi	r24, 0x01	; 1
    4738:	90 e0       	ldi	r25, 0x00	; 0
    473a:	90 93 a1 02 	sts	0x02A1, r25
    473e:	80 93 a0 02 	sts	0x02A0, r24
    4742:	08 95       	ret
    }
    else
    {
        if(jump_down){
    4744:	80 91 a0 02 	lds	r24, 0x02A0
    4748:	90 91 a1 02 	lds	r25, 0x02A1
    474c:	89 2b       	or	r24, r25
    474e:	51 f0       	breq	.+20     	; 0x4764 <get_buttons+0x10e>
            car_jump = 1;
    4750:	81 e0       	ldi	r24, 0x01	; 1
    4752:	90 e0       	ldi	r25, 0x00	; 0
    4754:	90 93 a9 02 	sts	0x02A9, r25
    4758:	80 93 a8 02 	sts	0x02A8, r24
            jump_down = 0;
    475c:	10 92 a1 02 	sts	0x02A1, r1
    4760:	10 92 a0 02 	sts	0x02A0, r1
    4764:	08 95       	ret

00004766 <__vector_9>:
    // Next sample
    ++sample;
}

/* Timer2 Interrupt Handler for more responsive Inputs */
ISR(TIMER2_COMP_vect) {
    4766:	1f 92       	push	r1
    4768:	0f 92       	push	r0
    476a:	0f b6       	in	r0, 0x3f	; 63
    476c:	0f 92       	push	r0
    476e:	0b b6       	in	r0, 0x3b	; 59
    4770:	0f 92       	push	r0
    4772:	11 24       	eor	r1, r1
    4774:	2f 93       	push	r18
    4776:	3f 93       	push	r19
    4778:	4f 93       	push	r20
    477a:	5f 93       	push	r21
    477c:	6f 93       	push	r22
    477e:	7f 93       	push	r23
    4780:	8f 93       	push	r24
    4782:	9f 93       	push	r25
    4784:	af 93       	push	r26
    4786:	bf 93       	push	r27
    4788:	ef 93       	push	r30
    478a:	ff 93       	push	r31

    get_buttons();
    478c:	0e 94 2b 23 	call	0x4656	; 0x4656 <get_buttons>
}
    4790:	ff 91       	pop	r31
    4792:	ef 91       	pop	r30
    4794:	bf 91       	pop	r27
    4796:	af 91       	pop	r26
    4798:	9f 91       	pop	r25
    479a:	8f 91       	pop	r24
    479c:	7f 91       	pop	r23
    479e:	6f 91       	pop	r22
    47a0:	5f 91       	pop	r21
    47a2:	4f 91       	pop	r20
    47a4:	3f 91       	pop	r19
    47a6:	2f 91       	pop	r18
    47a8:	0f 90       	pop	r0
    47aa:	0b be       	out	0x3b, r0	; 59
    47ac:	0f 90       	pop	r0
    47ae:	0f be       	out	0x3f, r0	; 63
    47b0:	0f 90       	pop	r0
    47b2:	1f 90       	pop	r1
    47b4:	18 95       	reti

000047b6 <draw_road>:
    lcd_print(game_over_2);
}

// Draw the scrolling road and render new obstacles as well as the score, car, and crash symbol!
void draw_road(void)
{
    47b6:	2f 92       	push	r2
    47b8:	3f 92       	push	r3
    47ba:	4f 92       	push	r4
    47bc:	5f 92       	push	r5
    47be:	6f 92       	push	r6
    47c0:	7f 92       	push	r7
    47c2:	8f 92       	push	r8
    47c4:	9f 92       	push	r9
    47c6:	af 92       	push	r10
    47c8:	bf 92       	push	r11
    47ca:	cf 92       	push	r12
    47cc:	df 92       	push	r13
    47ce:	ef 92       	push	r14
    47d0:	ff 92       	push	r15
    47d2:	0f 93       	push	r16
    47d4:	1f 93       	push	r17
    47d6:	df 93       	push	r29
    47d8:	cf 93       	push	r28
    47da:	00 d0       	rcall	.+0      	; 0x47dc <draw_road+0x26>
    47dc:	0f 92       	push	r0
    47de:	cd b7       	in	r28, 0x3d	; 61
    47e0:	de b7       	in	r29, 0x3e	; 62
    // Score is displayed on two lines
    char score_lines[2];
    
    // Get the Higher and Lower order bytes of the score
    long score_sec = score/1000;
    47e2:	60 91 aa 02 	lds	r22, 0x02AA
    47e6:	70 91 ab 02 	lds	r23, 0x02AB
    47ea:	80 91 ac 02 	lds	r24, 0x02AC
    47ee:	90 91 ad 02 	lds	r25, 0x02AD
    47f2:	28 ee       	ldi	r18, 0xE8	; 232
    47f4:	33 e0       	ldi	r19, 0x03	; 3
    47f6:	40 e0       	ldi	r20, 0x00	; 0
    47f8:	50 e0       	ldi	r21, 0x00	; 0
    47fa:	0e 94 f9 2f 	call	0x5ff2	; 0x5ff2 <__divmodsi4>
    47fe:	12 2f       	mov	r17, r18
    4800:	03 2f       	mov	r16, r19
    4802:	f4 2e       	mov	r15, r20
    4804:	e5 2e       	mov	r14, r21
    score_lines[1] = score_sec%10;
    4806:	62 2f       	mov	r22, r18
    4808:	73 2f       	mov	r23, r19
    480a:	84 2f       	mov	r24, r20
    480c:	95 2f       	mov	r25, r21
    480e:	2a e0       	ldi	r18, 0x0A	; 10
    4810:	30 e0       	ldi	r19, 0x00	; 0
    4812:	40 e0       	ldi	r20, 0x00	; 0
    4814:	50 e0       	ldi	r21, 0x00	; 0
    4816:	0e 94 f9 2f 	call	0x5ff2	; 0x5ff2 <__divmodsi4>
    481a:	6a 83       	std	Y+2, r22	; 0x02
    score_lines[0] = (score_sec/10)%10;
    481c:	61 2f       	mov	r22, r17
    481e:	70 2f       	mov	r23, r16
    4820:	8f 2d       	mov	r24, r15
    4822:	9e 2d       	mov	r25, r14
    4824:	2a e0       	ldi	r18, 0x0A	; 10
    4826:	30 e0       	ldi	r19, 0x00	; 0
    4828:	40 e0       	ldi	r20, 0x00	; 0
    482a:	50 e0       	ldi	r21, 0x00	; 0
    482c:	0e 94 f9 2f 	call	0x5ff2	; 0x5ff2 <__divmodsi4>
    4830:	ca 01       	movw	r24, r20
    4832:	b9 01       	movw	r22, r18
    4834:	2a e0       	ldi	r18, 0x0A	; 10
    4836:	30 e0       	ldi	r19, 0x00	; 0
    4838:	40 e0       	ldi	r20, 0x00	; 0
    483a:	50 e0       	ldi	r21, 0x00	; 0
    483c:	0e 94 f9 2f 	call	0x5ff2	; 0x5ff2 <__divmodsi4>
    4840:	69 83       	std	Y+1, r22	; 0x01
    4842:	66 24       	eor	r6, r6
    4844:	77 24       	eor	r7, r7
    
    //Loop through the lanes
    for (int i = 1; i <= 2; i++) {
        // Print the score byte;
        line_buffer[0] = score_lines[i-1] + '0';
    4846:	0f 2e       	mov	r0, r31
    4848:	f2 eb       	ldi	r31, 0xB2	; 178
    484a:	2f 2e       	mov	r2, r31
    484c:	f2 e0       	ldi	r31, 0x02	; 2
    484e:	3f 2e       	mov	r3, r31
    4850:	f0 2d       	mov	r31, r0
            int idx = (j + road_index)%ROADLEN;
			int obs = road[idx];
			
            // Here we do bitwise AND between obstacle pattern and lane
            // Use the fact that obstacle patterns are: 1 (B01) right lane, 2 (B10) left lane and 3 (B11) both lanes
            line_buffer[ROADLEN - j - 1] = (obs & i) ? GLYPH_OBSTACLE : (idx%2)?BLANK:MARKS[i-1];
    4852:	0f 2e       	mov	r0, r31
    4854:	f5 ec       	ldi	r31, 0xC5	; 197
    4856:	4f 2e       	mov	r4, r31
    4858:	f2 e0       	ldi	r31, 0x02	; 2
    485a:	5f 2e       	mov	r5, r31
    485c:	f0 2d       	mov	r31, r0
    485e:	80 e2       	ldi	r24, 0x20	; 32
    4860:	8b 83       	std	Y+3, r24	; 0x03
    lcd_print(game_over_2);
}

// Draw the scrolling road and render new obstacles as well as the score, car, and crash symbol!
void draw_road(void)
{
    4862:	43 01       	movw	r8, r6
    4864:	08 94       	sec
    4866:	81 1c       	adc	r8, r1
    4868:	91 1c       	adc	r9, r1
    486a:	64 01       	movw	r12, r8
    score_lines[0] = (score_sec/10)%10;
    
    //Loop through the lanes
    for (int i = 1; i <= 2; i++) {
        // Print the score byte;
        line_buffer[0] = score_lines[i-1] + '0';
    486c:	e1 e0       	ldi	r30, 0x01	; 1
    486e:	f0 e0       	ldi	r31, 0x00	; 0
    4870:	ec 0f       	add	r30, r28
    4872:	fd 1f       	adc	r31, r29
    4874:	e6 0d       	add	r30, r6
    4876:	f7 1d       	adc	r31, r7
    4878:	80 81       	ld	r24, Z
    487a:	80 5d       	subi	r24, 0xD0	; 208
    487c:	f1 01       	movw	r30, r2
    487e:	80 83       	st	Z, r24

        // Print the car, car jump or the crash symbol, or BLANK if nothing in this lane;
        if(car_pos == i)
    4880:	80 91 d8 02 	lds	r24, 0x02D8
    4884:	90 e0       	ldi	r25, 0x00	; 0
    4886:	88 15       	cp	r24, r8
    4888:	99 05       	cpc	r25, r9
    488a:	d9 f4       	brne	.+54     	; 0x48c2 <draw_road+0x10c>
        {
            if (crash)
    488c:	80 91 b0 02 	lds	r24, 0x02B0
    4890:	90 91 b1 02 	lds	r25, 0x02B1
    4894:	89 2b       	or	r24, r25
    4896:	29 f0       	breq	.+10     	; 0x48a2 <draw_road+0xec>
            {
                line_buffer[ROADLEN] = GLYPH_CRASH;
    4898:	84 e0       	ldi	r24, 0x04	; 4
    489a:	e1 ec       	ldi	r30, 0xC1	; 193
    489c:	f2 e0       	ldi	r31, 0x02	; 2
    489e:	80 83       	st	Z, r24
    48a0:	48 c0       	rjmp	.+144    	; 0x4932 <draw_road+0x17c>
            }
            else
            {
                if(car_jump)
    48a2:	80 91 a8 02 	lds	r24, 0x02A8
    48a6:	90 91 a9 02 	lds	r25, 0x02A9
    48aa:	89 2b       	or	r24, r25
    48ac:	29 f0       	breq	.+10     	; 0x48b8 <draw_road+0x102>
                {
                    line_buffer[ROADLEN] = GLYPH_CAR_JUMP;
    48ae:	82 e0       	ldi	r24, 0x02	; 2
    48b0:	e1 ec       	ldi	r30, 0xC1	; 193
    48b2:	f2 e0       	ldi	r31, 0x02	; 2
    48b4:	80 83       	st	Z, r24
    48b6:	3d c0       	rjmp	.+122    	; 0x4932 <draw_road+0x17c>
                }
                else
                {
                    line_buffer[ROADLEN] = GLYPH_CAR;
    48b8:	81 e0       	ldi	r24, 0x01	; 1
    48ba:	e1 ec       	ldi	r30, 0xC1	; 193
    48bc:	f2 e0       	ldi	r31, 0x02	; 2
    48be:	80 83       	st	Z, r24
    48c0:	38 c0       	rjmp	.+112    	; 0x4932 <draw_road+0x17c>
                }
            }
        }
        else
        {
            line_buffer[ROADLEN] = BLANK;
    48c2:	80 e2       	ldi	r24, 0x20	; 32
    48c4:	e1 ec       	ldi	r30, 0xC1	; 193
    48c6:	f2 e0       	ldi	r31, 0x02	; 2
    48c8:	80 83       	st	Z, r24
    48ca:	33 c0       	rjmp	.+102    	; 0x4932 <draw_road+0x17c>
        }


        // Print the obstacles
		for (int j = 0; j < ROADLEN - 1; j++) {
            int idx = (j + road_index)%ROADLEN;
    48cc:	c7 01       	movw	r24, r14
    48ce:	6f e0       	ldi	r22, 0x0F	; 15
    48d0:	70 e0       	ldi	r23, 0x00	; 0
    48d2:	0e 94 e6 2f 	call	0x5fcc	; 0x5fcc <__divmodhi4>
    48d6:	9c 01       	movw	r18, r24
			int obs = road[idx];
			
            // Here we do bitwise AND between obstacle pattern and lane
            // Use the fact that obstacle patterns are: 1 (B01) right lane, 2 (B10) left lane and 3 (B11) both lanes
            line_buffer[ROADLEN - j - 1] = (obs & i) ? GLYPH_OBSTACLE : (idx%2)?BLANK:MARKS[i-1];
    48d8:	f2 01       	movw	r30, r4
    48da:	e2 0f       	add	r30, r18
    48dc:	f3 1f       	adc	r31, r19
    48de:	80 81       	ld	r24, Z
    48e0:	90 e0       	ldi	r25, 0x00	; 0
    48e2:	8c 21       	and	r24, r12
    48e4:	9d 21       	and	r25, r13
    48e6:	89 2b       	or	r24, r25
    48e8:	11 f0       	breq	.+4      	; 0x48ee <draw_road+0x138>
    48ea:	83 e0       	ldi	r24, 0x03	; 3
    48ec:	06 c0       	rjmp	.+12     	; 0x48fa <draw_road+0x144>
    48ee:	20 ff       	sbrs	r18, 0
    48f0:	02 c0       	rjmp	.+4      	; 0x48f6 <draw_road+0x140>
    48f2:	8b 81       	ldd	r24, Y+3	; 0x03
    48f4:	02 c0       	rjmp	.+4      	; 0x48fa <draw_road+0x144>
    48f6:	f5 01       	movw	r30, r10
    48f8:	80 81       	ld	r24, Z
    48fa:	f8 01       	movw	r30, r16
    48fc:	80 83       	st	Z, r24
    48fe:	08 94       	sec
    4900:	e1 1c       	adc	r14, r1
    4902:	f1 1c       	adc	r15, r1
    4904:	01 50       	subi	r16, 0x01	; 1
    4906:	10 40       	sbci	r17, 0x00	; 0
            line_buffer[ROADLEN] = BLANK;
        }


        // Print the obstacles
		for (int j = 0; j < ROADLEN - 1; j++) {
    4908:	02 15       	cp	r16, r2
    490a:	13 05       	cpc	r17, r3
    490c:	f9 f6       	brne	.-66     	; 0x48cc <draw_road+0x116>
            // Use the fact that obstacle patterns are: 1 (B01) right lane, 2 (B10) left lane and 3 (B11) both lanes
            line_buffer[ROADLEN - j - 1] = (obs & i) ? GLYPH_OBSTACLE : (idx%2)?BLANK:MARKS[i-1];
		}
        
        // Null-terminate in order for lcd_print() to function properly
        line_buffer[ROADLEN+1] = 0;
    490e:	e2 ec       	ldi	r30, 0xC2	; 194
    4910:	f2 e0       	ldi	r31, 0x02	; 2
    4912:	10 82       	st	Z, r1
        
        // Position the cursor in place
		lcd_set_cursor(0, i-1);
    4914:	80 e0       	ldi	r24, 0x00	; 0
    4916:	90 e0       	ldi	r25, 0x00	; 0
    4918:	b3 01       	movw	r22, r6
    491a:	0e 94 28 28 	call	0x5050	; 0x5050 <lcd_set_cursor>
        
        // Actually print the line
		lcd_print(line_buffer);
    491e:	82 eb       	ldi	r24, 0xB2	; 178
    4920:	92 e0       	ldi	r25, 0x02	; 2
    4922:	0e 94 63 28 	call	0x50c6	; 0x50c6 <lcd_print>
    long score_sec = score/1000;
    score_lines[1] = score_sec%10;
    score_lines[0] = (score_sec/10)%10;
    
    //Loop through the lanes
    for (int i = 1; i <= 2; i++) {
    4926:	f2 e0       	ldi	r31, 0x02	; 2
    4928:	8f 16       	cp	r8, r31
    492a:	91 04       	cpc	r9, r1
    492c:	89 f0       	breq	.+34     	; 0x4950 <draw_road+0x19a>
    492e:	34 01       	movw	r6, r8
    4930:	98 cf       	rjmp	.-208    	; 0x4862 <draw_road+0xac>
		lcd_set_cursor(0, i-1);
        
        // Actually print the line
		lcd_print(line_buffer);
	}    
}
    4932:	e0 90 d4 02 	lds	r14, 0x02D4
    4936:	f0 90 d5 02 	lds	r15, 0x02D5
    493a:	00 ec       	ldi	r16, 0xC0	; 192
    493c:	12 e0       	ldi	r17, 0x02	; 2
            int idx = (j + road_index)%ROADLEN;
			int obs = road[idx];
			
            // Here we do bitwise AND between obstacle pattern and lane
            // Use the fact that obstacle patterns are: 1 (B01) right lane, 2 (B10) left lane and 3 (B11) both lanes
            line_buffer[ROADLEN - j - 1] = (obs & i) ? GLYPH_OBSTACLE : (idx%2)?BLANK:MARKS[i-1];
    493e:	0f 2e       	mov	r0, r31
    4940:	fc e5       	ldi	r31, 0x5C	; 92
    4942:	af 2e       	mov	r10, r31
    4944:	f1 e0       	ldi	r31, 0x01	; 1
    4946:	bf 2e       	mov	r11, r31
    4948:	f0 2d       	mov	r31, r0
    494a:	a6 0c       	add	r10, r6
    494c:	b7 1c       	adc	r11, r7
    494e:	be cf       	rjmp	.-132    	; 0x48cc <draw_road+0x116>
		lcd_set_cursor(0, i-1);
        
        // Actually print the line
		lcd_print(line_buffer);
	}    
}
    4950:	0f 90       	pop	r0
    4952:	0f 90       	pop	r0
    4954:	0f 90       	pop	r0
    4956:	cf 91       	pop	r28
    4958:	df 91       	pop	r29
    495a:	1f 91       	pop	r17
    495c:	0f 91       	pop	r16
    495e:	ff 90       	pop	r15
    4960:	ef 90       	pop	r14
    4962:	df 90       	pop	r13
    4964:	cf 90       	pop	r12
    4966:	bf 90       	pop	r11
    4968:	af 90       	pop	r10
    496a:	9f 90       	pop	r9
    496c:	8f 90       	pop	r8
    496e:	7f 90       	pop	r7
    4970:	6f 90       	pop	r6
    4972:	5f 90       	pop	r5
    4974:	4f 90       	pop	r4
    4976:	3f 90       	pop	r3
    4978:	2f 90       	pop	r2
    497a:	08 95       	ret

0000497c <show_intro>:
    lcd_write_ctrl(LCD_CLEAR);
}

// Print Splash Screen!
void show_intro(void)
{
    497c:	df 93       	push	r29
    497e:	cf 93       	push	r28
    4980:	cd b7       	in	r28, 0x3d	; 61
    4982:	de b7       	in	r29, 0x3e	; 62
    4984:	a2 97       	sbiw	r28, 0x22	; 34
    4986:	0f b6       	in	r0, 0x3f	; 63
    4988:	f8 94       	cli
    498a:	de bf       	out	0x3e, r29	; 62
    498c:	0f be       	out	0x3f, r0	; 63
    498e:	cd bf       	out	0x3d, r28	; 61
    char welcome_1[] = "_--Drive Safe--_";
    4990:	de 01       	movw	r26, r28
    4992:	11 96       	adiw	r26, 0x01	; 1
    4994:	e0 e0       	ldi	r30, 0x00	; 0
    4996:	f1 e0       	ldi	r31, 0x01	; 1
    4998:	81 e1       	ldi	r24, 0x11	; 17
    499a:	01 90       	ld	r0, Z+
    499c:	0d 92       	st	X+, r0
    499e:	81 50       	subi	r24, 0x01	; 1
    49a0:	e1 f7       	brne	.-8      	; 0x499a <show_intro+0x1e>
    char welcome_2[] = "'Jump to Start!'";
    49a2:	de 01       	movw	r26, r28
    49a4:	52 96       	adiw	r26, 0x12	; 18
    49a6:	e1 e1       	ldi	r30, 0x11	; 17
    49a8:	f1 e0       	ldi	r31, 0x01	; 1
    49aa:	81 e1       	ldi	r24, 0x11	; 17
    49ac:	01 90       	ld	r0, Z+
    49ae:	0d 92       	st	X+, r0
    49b0:	81 50       	subi	r24, 0x01	; 1
    49b2:	e1 f7       	brne	.-8      	; 0x49ac <show_intro+0x30>
    
    lcd_print(welcome_1);
    49b4:	ce 01       	movw	r24, r28
    49b6:	01 96       	adiw	r24, 0x01	; 1
    49b8:	0e 94 63 28 	call	0x50c6	; 0x50c6 <lcd_print>
    lcd_set_cursor(0,1);
    49bc:	80 e0       	ldi	r24, 0x00	; 0
    49be:	90 e0       	ldi	r25, 0x00	; 0
    49c0:	61 e0       	ldi	r22, 0x01	; 1
    49c2:	70 e0       	ldi	r23, 0x00	; 0
    49c4:	0e 94 28 28 	call	0x5050	; 0x5050 <lcd_set_cursor>
    lcd_print(welcome_2);
    49c8:	ce 01       	movw	r24, r28
    49ca:	42 96       	adiw	r24, 0x12	; 18
    49cc:	0e 94 63 28 	call	0x50c6	; 0x50c6 <lcd_print>
    //delay_msec(2000);
    
    //lcd_write_ctrl(LCD_CLEAR);
}
    49d0:	a2 96       	adiw	r28, 0x22	; 34
    49d2:	0f b6       	in	r0, 0x3f	; 63
    49d4:	f8 94       	cli
    49d6:	de bf       	out	0x3e, r29	; 62
    49d8:	0f be       	out	0x3f, r0	; 63
    49da:	cd bf       	out	0x3d, r28	; 61
    49dc:	cf 91       	pop	r28
    49de:	df 91       	pop	r29
    49e0:	08 95       	ret

000049e2 <show_game_over>:
}


// Draw crash glyph and print Scores
void show_game_over(void)
{
    49e2:	af 92       	push	r10
    49e4:	bf 92       	push	r11
    49e6:	cf 92       	push	r12
    49e8:	df 92       	push	r13
    49ea:	ef 92       	push	r14
    49ec:	ff 92       	push	r15
    49ee:	0f 93       	push	r16
    49f0:	1f 93       	push	r17
    49f2:	df 93       	push	r29
    49f4:	cf 93       	push	r28
    49f6:	cd b7       	in	r28, 0x3d	; 61
    49f8:	de b7       	in	r29, 0x3e	; 62
    49fa:	6c 97       	sbiw	r28, 0x1c	; 28
    49fc:	0f b6       	in	r0, 0x3f	; 63
    49fe:	f8 94       	cli
    4a00:	de bf       	out	0x3e, r29	; 62
    4a02:	0f be       	out	0x3f, r0	; 63
    4a04:	cd bf       	out	0x3d, r28	; 61
    char game_over_1[] = " Score: nnn  "; // indices: 7,8,9 to write the score digits, 11 for HScore Symbol
    4a06:	de 01       	movw	r26, r28
    4a08:	11 96       	adiw	r26, 0x01	; 1
    4a0a:	e2 e2       	ldi	r30, 0x22	; 34
    4a0c:	f1 e0       	ldi	r31, 0x01	; 1
    4a0e:	8e e0       	ldi	r24, 0x0E	; 14
    4a10:	01 90       	ld	r0, Z+
    4a12:	0d 92       	st	X+, r0
    4a14:	81 50       	subi	r24, 0x01	; 1
    4a16:	e1 f7       	brne	.-8      	; 0x4a10 <show_game_over+0x2e>
    char game_over_2[] = " Highest: nnn"; // indices: 9,10,11 to write the high score digits
    4a18:	de 01       	movw	r26, r28
    4a1a:	1f 96       	adiw	r26, 0x0f	; 15
    4a1c:	e0 e3       	ldi	r30, 0x30	; 48
    4a1e:	f1 e0       	ldi	r31, 0x01	; 1
    4a20:	8e e0       	ldi	r24, 0x0E	; 14
    4a22:	01 90       	ld	r0, Z+
    4a24:	0d 92       	st	X+, r0
    4a26:	81 50       	subi	r24, 0x01	; 1
    4a28:	e1 f7       	brne	.-8      	; 0x4a22 <show_game_over+0x40>
    
    long hscore = eeprom_read_dword((uint32_t*)SCORE_ADDR);
    4a2a:	84 e0       	ldi	r24, 0x04	; 4
    4a2c:	90 e0       	ldi	r25, 0x00	; 0
    4a2e:	0e 94 ec 30 	call	0x61d8	; 0x61d8 <__eerd_dword_m128>
    4a32:	37 2f       	mov	r19, r23
    4a34:	48 2f       	mov	r20, r24
    4a36:	59 2f       	mov	r21, r25
    4a38:	86 2f       	mov	r24, r22
    4a3a:	93 2f       	mov	r25, r19
    4a3c:	a4 2f       	mov	r26, r20
    4a3e:	b5 2f       	mov	r27, r21
    4a40:	5c 01       	movw	r10, r24
    4a42:	6d 01       	movw	r12, r26
    if(hscore < score)
    4a44:	40 91 aa 02 	lds	r20, 0x02AA
    4a48:	50 91 ab 02 	lds	r21, 0x02AB
    4a4c:	60 91 ac 02 	lds	r22, 0x02AC
    4a50:	70 91 ad 02 	lds	r23, 0x02AD
    4a54:	a4 16       	cp	r10, r20
    4a56:	b5 06       	cpc	r11, r21
    4a58:	c6 06       	cpc	r12, r22
    4a5a:	d7 06       	cpc	r13, r23
    4a5c:	34 f4       	brge	.+12     	; 0x4a6a <show_game_over+0x88>
    {
        eeprom_write_dword((uint32_t*)SCORE_ADDR, score);
    4a5e:	84 e0       	ldi	r24, 0x04	; 4
    4a60:	90 e0       	ldi	r25, 0x00	; 0
    4a62:	0e 94 f2 30 	call	0x61e4	; 0x61e4 <__eewr_dword_m128>
        game_over_1[12] = GLYPH_HSCORE;
    4a66:	85 e0       	ldi	r24, 0x05	; 5
    4a68:	8d 87       	std	Y+13, r24	; 0x0d
    }
    
    long score_sec = score/1000; // Score in seconds
    4a6a:	60 91 aa 02 	lds	r22, 0x02AA
    4a6e:	70 91 ab 02 	lds	r23, 0x02AB
    4a72:	80 91 ac 02 	lds	r24, 0x02AC
    4a76:	90 91 ad 02 	lds	r25, 0x02AD
    4a7a:	28 ee       	ldi	r18, 0xE8	; 232
    4a7c:	33 e0       	ldi	r19, 0x03	; 3
    4a7e:	40 e0       	ldi	r20, 0x00	; 0
    4a80:	50 e0       	ldi	r21, 0x00	; 0
    4a82:	0e 94 f9 2f 	call	0x5ff2	; 0x5ff2 <__divmodsi4>
    4a86:	12 2f       	mov	r17, r18
    4a88:	03 2f       	mov	r16, r19
    4a8a:	f4 2e       	mov	r15, r20
    4a8c:	e5 2e       	mov	r14, r21
    long hscore_sec = hscore/1000; // High Score in seconds
    4a8e:	c6 01       	movw	r24, r12
    4a90:	b5 01       	movw	r22, r10
    4a92:	28 ee       	ldi	r18, 0xE8	; 232
    4a94:	33 e0       	ldi	r19, 0x03	; 3
    4a96:	40 e0       	ldi	r20, 0x00	; 0
    4a98:	50 e0       	ldi	r21, 0x00	; 0
    4a9a:	0e 94 f9 2f 	call	0x5ff2	; 0x5ff2 <__divmodsi4>
    4a9e:	d2 2e       	mov	r13, r18
    4aa0:	c3 2e       	mov	r12, r19
    4aa2:	b4 2e       	mov	r11, r20
    4aa4:	a5 2e       	mov	r10, r21

    game_over_1[10] = score_sec%10 + '0';  score_sec /= 10;
    4aa6:	61 2f       	mov	r22, r17
    4aa8:	70 2f       	mov	r23, r16
    4aaa:	8f 2d       	mov	r24, r15
    4aac:	9e 2d       	mov	r25, r14
    4aae:	2a e0       	ldi	r18, 0x0A	; 10
    4ab0:	30 e0       	ldi	r19, 0x00	; 0
    4ab2:	40 e0       	ldi	r20, 0x00	; 0
    4ab4:	50 e0       	ldi	r21, 0x00	; 0
    4ab6:	0e 94 f9 2f 	call	0x5ff2	; 0x5ff2 <__divmodsi4>
    4aba:	60 5d       	subi	r22, 0xD0	; 208
    4abc:	6b 87       	std	Y+11, r22	; 0x0b
    4abe:	61 2f       	mov	r22, r17
    4ac0:	70 2f       	mov	r23, r16
    4ac2:	8f 2d       	mov	r24, r15
    4ac4:	9e 2d       	mov	r25, r14
    4ac6:	2a e0       	ldi	r18, 0x0A	; 10
    4ac8:	30 e0       	ldi	r19, 0x00	; 0
    4aca:	40 e0       	ldi	r20, 0x00	; 0
    4acc:	50 e0       	ldi	r21, 0x00	; 0
    4ace:	0e 94 f9 2f 	call	0x5ff2	; 0x5ff2 <__divmodsi4>
    4ad2:	12 2f       	mov	r17, r18
    4ad4:	03 2f       	mov	r16, r19
    4ad6:	f4 2e       	mov	r15, r20
    4ad8:	e5 2e       	mov	r14, r21
    game_over_1[9] = score_sec%10 + '0';  score_sec /= 10;
    4ada:	62 2f       	mov	r22, r18
    4adc:	73 2f       	mov	r23, r19
    4ade:	84 2f       	mov	r24, r20
    4ae0:	95 2f       	mov	r25, r21
    4ae2:	2a e0       	ldi	r18, 0x0A	; 10
    4ae4:	30 e0       	ldi	r19, 0x00	; 0
    4ae6:	40 e0       	ldi	r20, 0x00	; 0
    4ae8:	50 e0       	ldi	r21, 0x00	; 0
    4aea:	0e 94 f9 2f 	call	0x5ff2	; 0x5ff2 <__divmodsi4>
    4aee:	60 5d       	subi	r22, 0xD0	; 208
    4af0:	6a 87       	std	Y+10, r22	; 0x0a
    game_over_1[8] = score_sec%10 + '0';
    4af2:	61 2f       	mov	r22, r17
    4af4:	70 2f       	mov	r23, r16
    4af6:	8f 2d       	mov	r24, r15
    4af8:	9e 2d       	mov	r25, r14
    4afa:	2a e0       	ldi	r18, 0x0A	; 10
    4afc:	30 e0       	ldi	r19, 0x00	; 0
    4afe:	40 e0       	ldi	r20, 0x00	; 0
    4b00:	50 e0       	ldi	r21, 0x00	; 0
    4b02:	0e 94 f9 2f 	call	0x5ff2	; 0x5ff2 <__divmodsi4>
    4b06:	ca 01       	movw	r24, r20
    4b08:	b9 01       	movw	r22, r18
    4b0a:	2a e0       	ldi	r18, 0x0A	; 10
    4b0c:	30 e0       	ldi	r19, 0x00	; 0
    4b0e:	40 e0       	ldi	r20, 0x00	; 0
    4b10:	50 e0       	ldi	r21, 0x00	; 0
    4b12:	0e 94 f9 2f 	call	0x5ff2	; 0x5ff2 <__divmodsi4>
    4b16:	60 5d       	subi	r22, 0xD0	; 208
    4b18:	69 87       	std	Y+9, r22	; 0x09

    game_over_2[12] = hscore_sec%10 + '0';  hscore_sec /= 10;
    4b1a:	6d 2d       	mov	r22, r13
    4b1c:	7c 2d       	mov	r23, r12
    4b1e:	8b 2d       	mov	r24, r11
    4b20:	9a 2d       	mov	r25, r10
    4b22:	2a e0       	ldi	r18, 0x0A	; 10
    4b24:	30 e0       	ldi	r19, 0x00	; 0
    4b26:	40 e0       	ldi	r20, 0x00	; 0
    4b28:	50 e0       	ldi	r21, 0x00	; 0
    4b2a:	0e 94 f9 2f 	call	0x5ff2	; 0x5ff2 <__divmodsi4>
    4b2e:	60 5d       	subi	r22, 0xD0	; 208
    4b30:	6b 8f       	std	Y+27, r22	; 0x1b
    4b32:	6d 2d       	mov	r22, r13
    4b34:	7c 2d       	mov	r23, r12
    4b36:	8b 2d       	mov	r24, r11
    4b38:	9a 2d       	mov	r25, r10
    4b3a:	2a e0       	ldi	r18, 0x0A	; 10
    4b3c:	30 e0       	ldi	r19, 0x00	; 0
    4b3e:	40 e0       	ldi	r20, 0x00	; 0
    4b40:	50 e0       	ldi	r21, 0x00	; 0
    4b42:	0e 94 f9 2f 	call	0x5ff2	; 0x5ff2 <__divmodsi4>
    4b46:	12 2f       	mov	r17, r18
    4b48:	03 2f       	mov	r16, r19
    4b4a:	f4 2e       	mov	r15, r20
    4b4c:	e5 2e       	mov	r14, r21
    game_over_2[11] = hscore_sec%10 + '0';  hscore_sec /= 10;
    4b4e:	62 2f       	mov	r22, r18
    4b50:	73 2f       	mov	r23, r19
    4b52:	84 2f       	mov	r24, r20
    4b54:	95 2f       	mov	r25, r21
    4b56:	2a e0       	ldi	r18, 0x0A	; 10
    4b58:	30 e0       	ldi	r19, 0x00	; 0
    4b5a:	40 e0       	ldi	r20, 0x00	; 0
    4b5c:	50 e0       	ldi	r21, 0x00	; 0
    4b5e:	0e 94 f9 2f 	call	0x5ff2	; 0x5ff2 <__divmodsi4>
    4b62:	60 5d       	subi	r22, 0xD0	; 208
    4b64:	6a 8f       	std	Y+26, r22	; 0x1a
    game_over_2[10] = hscore_sec%10 + '0';
    4b66:	61 2f       	mov	r22, r17
    4b68:	70 2f       	mov	r23, r16
    4b6a:	8f 2d       	mov	r24, r15
    4b6c:	9e 2d       	mov	r25, r14
    4b6e:	2a e0       	ldi	r18, 0x0A	; 10
    4b70:	30 e0       	ldi	r19, 0x00	; 0
    4b72:	40 e0       	ldi	r20, 0x00	; 0
    4b74:	50 e0       	ldi	r21, 0x00	; 0
    4b76:	0e 94 f9 2f 	call	0x5ff2	; 0x5ff2 <__divmodsi4>
    4b7a:	ca 01       	movw	r24, r20
    4b7c:	b9 01       	movw	r22, r18
    4b7e:	2a e0       	ldi	r18, 0x0A	; 10
    4b80:	30 e0       	ldi	r19, 0x00	; 0
    4b82:	40 e0       	ldi	r20, 0x00	; 0
    4b84:	50 e0       	ldi	r21, 0x00	; 0
    4b86:	0e 94 f9 2f 	call	0x5ff2	; 0x5ff2 <__divmodsi4>
    4b8a:	60 5d       	subi	r22, 0xD0	; 208
    4b8c:	69 8f       	std	Y+25, r22	; 0x19
    
    road_index = (road_index + 1) % ROADLEN;
    4b8e:	80 91 d4 02 	lds	r24, 0x02D4
    4b92:	90 91 d5 02 	lds	r25, 0x02D5
    4b96:	01 96       	adiw	r24, 0x01	; 1
    4b98:	6f e0       	ldi	r22, 0x0F	; 15
    4b9a:	70 e0       	ldi	r23, 0x00	; 0
    4b9c:	0e 94 e6 2f 	call	0x5fcc	; 0x5fcc <__divmodhi4>
    4ba0:	90 93 d5 02 	sts	0x02D5, r25
    4ba4:	80 93 d4 02 	sts	0x02D4, r24
    draw_road();
    4ba8:	0e 94 db 23 	call	0x47b6	; 0x47b6 <draw_road>
 
	lcd_set_cursor(1, 0);
    4bac:	81 e0       	ldi	r24, 0x01	; 1
    4bae:	90 e0       	ldi	r25, 0x00	; 0
    4bb0:	60 e0       	ldi	r22, 0x00	; 0
    4bb2:	70 e0       	ldi	r23, 0x00	; 0
    4bb4:	0e 94 28 28 	call	0x5050	; 0x5050 <lcd_set_cursor>
    lcd_print(game_over_1);
    4bb8:	ce 01       	movw	r24, r28
    4bba:	01 96       	adiw	r24, 0x01	; 1
    4bbc:	0e 94 63 28 	call	0x50c6	; 0x50c6 <lcd_print>
	lcd_set_cursor(1, 1);
    4bc0:	81 e0       	ldi	r24, 0x01	; 1
    4bc2:	90 e0       	ldi	r25, 0x00	; 0
    4bc4:	61 e0       	ldi	r22, 0x01	; 1
    4bc6:	70 e0       	ldi	r23, 0x00	; 0
    4bc8:	0e 94 28 28 	call	0x5050	; 0x5050 <lcd_set_cursor>
    lcd_print(game_over_2);
    4bcc:	ce 01       	movw	r24, r28
    4bce:	0f 96       	adiw	r24, 0x0f	; 15
    4bd0:	0e 94 63 28 	call	0x50c6	; 0x50c6 <lcd_print>
}
    4bd4:	6c 96       	adiw	r28, 0x1c	; 28
    4bd6:	0f b6       	in	r0, 0x3f	; 63
    4bd8:	f8 94       	cli
    4bda:	de bf       	out	0x3e, r29	; 62
    4bdc:	0f be       	out	0x3f, r0	; 63
    4bde:	cd bf       	out	0x3d, r28	; 61
    4be0:	cf 91       	pop	r28
    4be2:	df 91       	pop	r29
    4be4:	1f 91       	pop	r17
    4be6:	0f 91       	pop	r16
    4be8:	ff 90       	pop	r15
    4bea:	ef 90       	pop	r14
    4bec:	df 90       	pop	r13
    4bee:	cf 90       	pop	r12
    4bf0:	bf 90       	pop	r11
    4bf2:	af 90       	pop	r10
    4bf4:	08 95       	ret

00004bf6 <game_loop>:
    }    
}

/* Main game loop generating obstacles, drawing the road and checking for crash*/
void game_loop(void)
{
    4bf6:	af 92       	push	r10
    4bf8:	bf 92       	push	r11
    4bfa:	cf 92       	push	r12
    4bfc:	df 92       	push	r13
    4bfe:	ef 92       	push	r14
    4c00:	ff 92       	push	r15
    4c02:	0f 93       	push	r16
    4c04:	1f 93       	push	r17
    4c06:	cf 93       	push	r28
    4c08:	df 93       	push	r29
        
        /*if(!crash){
        }*/
        // Check if car_pos is the same as an Obstacle ( or two lanes obstacles )
        if(car_jump==0)
            crash = (car_pos == road[road_index]) || (road[road_index] == BOTHLANES) ;
    4c0a:	05 ec       	ldi	r16, 0xC5	; 197
    4c0c:	12 e0       	ldi	r17, 0x02	; 2
    4c0e:	cc 24       	eor	r12, r12
    4c10:	dd 24       	eor	r13, r13
    4c12:	aa 24       	eor	r10, r10
    4c14:	bb 24       	eor	r11, r11
    4c16:	a3 94       	inc	r10
        {
            // Put new random obstacle, but first make sure obstacles are avoidable
            // So, check if previous position had an obstacle if so don't put new obstacles
            int prev_obstacle;
            if(road_index==0)
                prev_obstacle = road[ROADLEN-1];
    4c18:	0f 2e       	mov	r0, r31
    4c1a:	f3 ed       	ldi	r31, 0xD3	; 211
    4c1c:	ef 2e       	mov	r14, r31
    4c1e:	f2 e0       	ldi	r31, 0x02	; 2
    4c20:	ff 2e       	mov	r15, r31
    4c22:	f0 2d       	mov	r31, r0
    while (1) {
        
        /*if(!crash){
        }*/
        // Check if car_pos is the same as an Obstacle ( or two lanes obstacles )
        if(car_jump==0)
    4c24:	80 91 a8 02 	lds	r24, 0x02A8
    4c28:	90 91 a9 02 	lds	r25, 0x02A9
    4c2c:	89 2b       	or	r24, r25
    4c2e:	e1 f4       	brne	.+56     	; 0x4c68 <game_loop+0x72>
            crash = (car_pos == road[road_index]) || (road[road_index] == BOTHLANES) ;
    4c30:	80 91 d4 02 	lds	r24, 0x02D4
    4c34:	90 91 d5 02 	lds	r25, 0x02D5
    4c38:	f8 01       	movw	r30, r16
    4c3a:	e8 0f       	add	r30, r24
    4c3c:	f9 1f       	adc	r31, r25
    4c3e:	e0 81       	ld	r30, Z
    4c40:	80 91 d8 02 	lds	r24, 0x02D8
    4c44:	e8 17       	cp	r30, r24
    4c46:	21 f4       	brne	.+8      	; 0x4c50 <game_loop+0x5a>
    4c48:	c5 01       	movw	r24, r10
    4c4a:	2a 2d       	mov	r18, r10
    4c4c:	89 2f       	mov	r24, r25
    4c4e:	08 c0       	rjmp	.+16     	; 0x4c60 <game_loop+0x6a>
    4c50:	c6 01       	movw	r24, r12
    4c52:	2c 2d       	mov	r18, r12
    4c54:	89 2f       	mov	r24, r25
    4c56:	e3 30       	cpi	r30, 0x03	; 3
    4c58:	19 f4       	brne	.+6      	; 0x4c60 <game_loop+0x6a>
    4c5a:	c5 01       	movw	r24, r10
    4c5c:	2a 2d       	mov	r18, r10
    4c5e:	89 2f       	mov	r24, r25
    4c60:	20 93 b0 02 	sts	0x02B0, r18
    4c64:	80 93 b1 02 	sts	0x02B1, r24

        if(crash){
    4c68:	80 91 b0 02 	lds	r24, 0x02B0
    4c6c:	90 91 b1 02 	lds	r25, 0x02B1
    4c70:	89 2b       	or	r24, r25
    4c72:	09 f0       	breq	.+2      	; 0x4c76 <game_loop+0x80>
    4c74:	8a c0       	rjmp	.+276    	; 0x4d8a <game_loop+0x194>
        else
        {
            // Put new random obstacle, but first make sure obstacles are avoidable
            // So, check if previous position had an obstacle if so don't put new obstacles
            int prev_obstacle;
            if(road_index==0)
    4c76:	20 91 d4 02 	lds	r18, 0x02D4
    4c7a:	30 91 d5 02 	lds	r19, 0x02D5
    4c7e:	21 15       	cp	r18, r1
    4c80:	31 05       	cpc	r19, r1
    4c82:	21 f4       	brne	.+8      	; 0x4c8c <game_loop+0x96>
                prev_obstacle = road[ROADLEN-1];
    4c84:	f7 01       	movw	r30, r14
    4c86:	80 81       	ld	r24, Z
    4c88:	90 e0       	ldi	r25, 0x00	; 0
    4c8a:	0b c0       	rjmp	.+22     	; 0x4ca2 <game_loop+0xac>
            else
                prev_obstacle = road[(road_index-1)%ROADLEN];
    4c8c:	c9 01       	movw	r24, r18
    4c8e:	01 97       	sbiw	r24, 0x01	; 1
    4c90:	6f e0       	ldi	r22, 0x0F	; 15
    4c92:	70 e0       	ldi	r23, 0x00	; 0
    4c94:	0e 94 e6 2f 	call	0x5fcc	; 0x5fcc <__divmodhi4>
    4c98:	f8 01       	movw	r30, r16
    4c9a:	e8 0f       	add	r30, r24
    4c9c:	f9 1f       	adc	r31, r25
    4c9e:	80 81       	ld	r24, Z
    4ca0:	90 e0       	ldi	r25, 0x00	; 0
            
            // By default there is no obstacle!
            road[road_index] = 0;
    4ca2:	f8 01       	movw	r30, r16
    4ca4:	e2 0f       	add	r30, r18
    4ca6:	f3 1f       	adc	r31, r19
    4ca8:	10 82       	st	Z, r1

            if(prev_obstacle==0){
    4caa:	89 2b       	or	r24, r25
    4cac:	91 f4       	brne	.+36     	; 0x4cd2 <game_loop+0xdc>
                int new_obstacle = rrand(MAXOBSTACLES) + 1; // Get random pattern of obstacles (1,2,3 or otherwise)
    4cae:	8f e0       	ldi	r24, 0x0F	; 15
    4cb0:	90 e0       	ldi	r25, 0x00	; 0
    4cb2:	0e 94 fb 28 	call	0x51f6	; 0x51f6 <rrand>
    4cb6:	9c 01       	movw	r18, r24
    4cb8:	2f 5f       	subi	r18, 0xFF	; 255
    4cba:	3f 4f       	sbci	r19, 0xFF	; 255
                if(new_obstacle<=3){
    4cbc:	24 30       	cpi	r18, 0x04	; 4
    4cbe:	31 05       	cpc	r19, r1
    4cc0:	44 f4       	brge	.+16     	; 0x4cd2 <game_loop+0xdc>
                    road[road_index] = new_obstacle; // Set the pattern of the new obstacle
    4cc2:	80 91 d4 02 	lds	r24, 0x02D4
    4cc6:	90 91 d5 02 	lds	r25, 0x02D5
    4cca:	f8 01       	movw	r30, r16
    4ccc:	e8 0f       	add	r30, r24
    4cce:	f9 1f       	adc	r31, r25
    4cd0:	20 83       	st	Z, r18
                }
            }
            
            road_index = (road_index + 1) % ROADLEN;            
    4cd2:	80 91 d4 02 	lds	r24, 0x02D4
    4cd6:	90 91 d5 02 	lds	r25, 0x02D5
    4cda:	01 96       	adiw	r24, 0x01	; 1
    4cdc:	6f e0       	ldi	r22, 0x0F	; 15
    4cde:	70 e0       	ldi	r23, 0x00	; 0
    4ce0:	0e 94 e6 2f 	call	0x5fcc	; 0x5fcc <__divmodhi4>
    4ce4:	90 93 d5 02 	sts	0x02D5, r25
    4ce8:	80 93 d4 02 	sts	0x02D4, r24
            draw_road();
    4cec:	0e 94 db 23 	call	0x47b6	; 0x47b6 <draw_road>
            
            if(car_jump)
    4cf0:	80 91 a8 02 	lds	r24, 0x02A8
    4cf4:	90 91 a9 02 	lds	r25, 0x02A9
    4cf8:	00 97       	sbiw	r24, 0x00	; 0
    4cfa:	49 f0       	breq	.+18     	; 0x4d0e <game_loop+0x118>
            {
                car_jump = (car_jump+1)%CARJUMPSTEPS;
    4cfc:	01 96       	adiw	r24, 0x01	; 1
    4cfe:	64 e0       	ldi	r22, 0x04	; 4
    4d00:	70 e0       	ldi	r23, 0x00	; 0
    4d02:	0e 94 e6 2f 	call	0x5fcc	; 0x5fcc <__divmodhi4>
    4d06:	90 93 a9 02 	sts	0x02A9, r25
    4d0a:	80 93 a8 02 	sts	0x02A8, r24
            }
            
            // The speed of rendering the road (this loop) is decreasing
            // Also, if accelerate/brake buttons pressed, increase/decrease the rendering speed
            int dly = step_duration + (car_accel/10);
    4d0e:	60 91 a2 02 	lds	r22, 0x02A2
    4d12:	70 91 a3 02 	lds	r23, 0x02A3
    4d16:	80 91 a4 02 	lds	r24, 0x02A4
    4d1a:	90 91 a5 02 	lds	r25, 0x02A5
    4d1e:	2a e0       	ldi	r18, 0x0A	; 10
    4d20:	30 e0       	ldi	r19, 0x00	; 0
    4d22:	40 e0       	ldi	r20, 0x00	; 0
    4d24:	50 e0       	ldi	r21, 0x00	; 0
    4d26:	0e 94 f9 2f 	call	0x5ff2	; 0x5ff2 <__divmodsi4>
    4d2a:	80 91 ae 02 	lds	r24, 0x02AE
    4d2e:	90 91 af 02 	lds	r25, 0x02AF
    4d32:	ec 01       	movw	r28, r24
    4d34:	c2 0f       	add	r28, r18
    4d36:	d3 1f       	adc	r29, r19
            delay_msec(dly);
    4d38:	ce 01       	movw	r24, r28
    4d3a:	0e 94 82 28 	call	0x5104	; 0x5104 <delay_msec>
            if (step_duration > MINSTEPDURATION) {
    4d3e:	80 91 ae 02 	lds	r24, 0x02AE
    4d42:	90 91 af 02 	lds	r25, 0x02AF
    4d46:	87 39       	cpi	r24, 0x97	; 151
    4d48:	91 05       	cpc	r25, r1
    4d4a:	2c f0       	brlt	.+10     	; 0x4d56 <game_loop+0x160>
                step_duration--; 
    4d4c:	01 97       	sbiw	r24, 0x01	; 1
    4d4e:	90 93 af 02 	sts	0x02AF, r25
    4d52:	80 93 ae 02 	sts	0x02AE, r24
            }
            score += dly;
    4d56:	9e 01       	movw	r18, r28
    4d58:	44 27       	eor	r20, r20
    4d5a:	37 fd       	sbrc	r19, 7
    4d5c:	40 95       	com	r20
    4d5e:	54 2f       	mov	r21, r20
    4d60:	80 91 aa 02 	lds	r24, 0x02AA
    4d64:	90 91 ab 02 	lds	r25, 0x02AB
    4d68:	a0 91 ac 02 	lds	r26, 0x02AC
    4d6c:	b0 91 ad 02 	lds	r27, 0x02AD
    4d70:	82 0f       	add	r24, r18
    4d72:	93 1f       	adc	r25, r19
    4d74:	a4 1f       	adc	r26, r20
    4d76:	b5 1f       	adc	r27, r21
    4d78:	80 93 aa 02 	sts	0x02AA, r24
    4d7c:	90 93 ab 02 	sts	0x02AB, r25
    4d80:	a0 93 ac 02 	sts	0x02AC, r26
    4d84:	b0 93 ad 02 	sts	0x02AD, r27
    4d88:	4d cf       	rjmp	.-358    	; 0x4c24 <game_loop+0x2e>

        }
    }
}
    4d8a:	df 91       	pop	r29
    4d8c:	cf 91       	pop	r28
    4d8e:	1f 91       	pop	r17
    4d90:	0f 91       	pop	r16
    4d92:	ff 90       	pop	r15
    4d94:	ef 90       	pop	r14
    4d96:	df 90       	pop	r13
    4d98:	cf 90       	pop	r12
    4d9a:	bf 90       	pop	r11
    4d9c:	af 90       	pop	r10
    4d9e:	08 95       	ret

00004da0 <wait_car_jump>:
// Wait until proper Jump button press/release
void wait_car_jump(void)
{
    while (1) 
    {
        delay_msec(50);
    4da0:	82 e3       	ldi	r24, 0x32	; 50
    4da2:	90 e0       	ldi	r25, 0x00	; 0
    4da4:	0e 94 82 28 	call	0x5104	; 0x5104 <delay_msec>
        if(car_jump) {
    4da8:	80 91 a8 02 	lds	r24, 0x02A8
    4dac:	90 91 a9 02 	lds	r25, 0x02A9
    4db0:	89 2b       	or	r24, r25
    4db2:	b1 f3       	breq	.-20     	; 0x4da0 <wait_car_jump>
            car_jump = 0;
    4db4:	10 92 a9 02 	sts	0x02A9, r1
    4db8:	10 92 a8 02 	sts	0x02A8, r1
            return;
        }
    }    
}
    4dbc:	08 95       	ret

00004dbe <reset_state>:

// Reset game state and clear previous display
void reset_state(void)
{
    // Initialize seed to Timer2 which roughly works as global time
    int seed = TCNT2;
    4dbe:	84 b5       	in	r24, 0x24	; 36
    srand(seed);
    4dc0:	90 e0       	ldi	r25, 0x00	; 0
    4dc2:	0e 94 e1 30 	call	0x61c2	; 0x61c2 <srand>
    
    car_pos = RIGHTLANE; // Initially in the right lane
    4dc6:	81 e0       	ldi	r24, 0x01	; 1
    4dc8:	80 93 d8 02 	sts	0x02D8, r24
    step_duration = MAXSTEPDURATION; // Start from the slowest step speed ( maximum duration )
    4dcc:	88 e5       	ldi	r24, 0x58	; 88
    4dce:	92 e0       	ldi	r25, 0x02	; 2
    4dd0:	90 93 af 02 	sts	0x02AF, r25
    4dd4:	80 93 ae 02 	sts	0x02AE, r24
    4dd8:	e5 ec       	ldi	r30, 0xC5	; 197
    4dda:	f2 e0       	ldi	r31, 0x02	; 2
    
    // Brand new obstacle free road ! 
    for(int i=0; i<ROADLEN;i++)
    4ddc:	84 ed       	ldi	r24, 0xD4	; 212
    4dde:	92 e0       	ldi	r25, 0x02	; 2
    {
        road[i] = 0;
    4de0:	11 92       	st	Z+, r1
    
    car_pos = RIGHTLANE; // Initially in the right lane
    step_duration = MAXSTEPDURATION; // Start from the slowest step speed ( maximum duration )
    
    // Brand new obstacle free road ! 
    for(int i=0; i<ROADLEN;i++)
    4de2:	e8 17       	cp	r30, r24
    4de4:	f9 07       	cpc	r31, r25
    4de6:	e1 f7       	brne	.-8      	; 0x4de0 <reset_state+0x22>
    {
        road[i] = 0;
    }
    
    line_buffer[ROADLEN+1] = '\0';
    4de8:	10 92 c2 02 	sts	0x02C2, r1
    car_jump = 0;
    4dec:	10 92 a9 02 	sts	0x02A9, r1
    4df0:	10 92 a8 02 	sts	0x02A8, r1
    crash = 0;
    4df4:	10 92 b1 02 	sts	0x02B1, r1
    4df8:	10 92 b0 02 	sts	0x02B0, r1
    car_accel = 0;
    4dfc:	10 92 a2 02 	sts	0x02A2, r1
    4e00:	10 92 a3 02 	sts	0x02A3, r1
    4e04:	10 92 a4 02 	sts	0x02A4, r1
    4e08:	10 92 a5 02 	sts	0x02A5, r1
    road_index = 0;
    4e0c:	10 92 d5 02 	sts	0x02D5, r1
    4e10:	10 92 d4 02 	sts	0x02D4, r1
    score = 0 ;
    4e14:	10 92 aa 02 	sts	0x02AA, r1
    4e18:	10 92 ab 02 	sts	0x02AB, r1
    4e1c:	10 92 ac 02 	sts	0x02AC, r1
    4e20:	10 92 ad 02 	sts	0x02AD, r1
    
    lcd_write_ctrl(LCD_CLEAR);
    4e24:	81 e0       	ldi	r24, 0x01	; 1
    4e26:	90 e0       	ldi	r25, 0x00	; 0
    4e28:	60 e0       	ldi	r22, 0x00	; 0
    4e2a:	70 e0       	ldi	r23, 0x00	; 0
    4e2c:	0e 94 ca 27 	call	0x4f94	; 0x4f94 <lcd_write>
}
    4e30:	08 95       	ret

00004e32 <setup_lcd>:
    }
}

// Mainly to setup LCD characters
void setup_lcd(void)
{
    4e32:	0f 93       	push	r16
    4e34:	1f 93       	push	r17
    4e36:	cf 93       	push	r28
    4e38:	df 93       	push	r29
    4e3a:	08 e6       	ldi	r16, 0x68	; 104
    4e3c:	11 e0       	ldi	r17, 0x01	; 1
    4e3e:	c0 e0       	ldi	r28, 0x00	; 0
    4e40:	d0 e0       	ldi	r29, 0x00	; 0
    for (int i = 0; i < NGLYPHS; i++) {
        lcd_create_glyph(i + 1, glyphs[i]);	// create glyphs
    4e42:	21 96       	adiw	r28, 0x01	; 1
    4e44:	ce 01       	movw	r24, r28
    4e46:	b8 01       	movw	r22, r16
    4e48:	0e 94 3d 28 	call	0x507a	; 0x507a <lcd_create_glyph>
    4e4c:	08 5f       	subi	r16, 0xF8	; 248
    4e4e:	1f 4f       	sbci	r17, 0xFF	; 255
}

// Mainly to setup LCD characters
void setup_lcd(void)
{
    for (int i = 0; i < NGLYPHS; i++) {
    4e50:	c5 30       	cpi	r28, 0x05	; 5
    4e52:	d1 05       	cpc	r29, r1
    4e54:	b1 f7       	brne	.-20     	; 0x4e42 <setup_lcd+0x10>
        lcd_create_glyph(i + 1, glyphs[i]);	// create glyphs
    }
    
    lcd_write_ctrl(LCD_ON);
    4e56:	8c e0       	ldi	r24, 0x0C	; 12
    4e58:	90 e0       	ldi	r25, 0x00	; 0
    4e5a:	60 e0       	ldi	r22, 0x00	; 0
    4e5c:	70 e0       	ldi	r23, 0x00	; 0
    4e5e:	0e 94 ca 27 	call	0x4f94	; 0x4f94 <lcd_write>
    lcd_write_ctrl(LCD_CLEAR);
    4e62:	81 e0       	ldi	r24, 0x01	; 1
    4e64:	90 e0       	ldi	r25, 0x00	; 0
    4e66:	60 e0       	ldi	r22, 0x00	; 0
    4e68:	70 e0       	ldi	r23, 0x00	; 0
    4e6a:	0e 94 ca 27 	call	0x4f94	; 0x4f94 <lcd_write>
    
}
    4e6e:	df 91       	pop	r29
    4e70:	cf 91       	pop	r28
    4e72:	1f 91       	pop	r17
    4e74:	0f 91       	pop	r16
    4e76:	08 95       	ret

00004e78 <init>:
}

void init(void) {

   		/* Clear interrupts */
		cli();
    4e78:	f8 94       	cli

        /* Timer2 used for reading user inputs in responsive way*/
		// Set Timer2 to CTC mode, and normal port operation
        // WGM21:0 = b10 and COM21:0 = 00
        TCCR2 &= ~( (1 << WGM20) | (1 << COM21) | (1 << COM20));
    4e7a:	e5 e4       	ldi	r30, 0x45	; 69
    4e7c:	f0 e0       	ldi	r31, 0x00	; 0
    4e7e:	80 81       	ld	r24, Z
    4e80:	8f 78       	andi	r24, 0x8F	; 143
    4e82:	80 83       	st	Z, r24
        TCCR2 |=  (1 << WGM21);
    4e84:	80 81       	ld	r24, Z
    4e86:	88 60       	ori	r24, 0x08	; 8
    4e88:	80 83       	st	Z, r24
        // Set Timer2 prescaler (16 000 000 / 1024) = 15625 Hz
        TCCR2 |= (1 << CS22) | (1 << CS20);
    4e8a:	80 81       	ld	r24, Z
    4e8c:	85 60       	ori	r24, 0x05	; 5
    4e8e:	80 83       	st	Z, r24
        TCCR2 &= ~(1<< CS21);
    4e90:	80 81       	ld	r24, Z
    4e92:	8d 7f       	andi	r24, 0xFD	; 253
    4e94:	80 83       	st	Z, r24
        // Set OCR2 register value to 0x003e (62 ~ 15625/250) (corresponds to ~250hz)
        OCR2 = 0x3e; //62
    4e96:	8e e3       	ldi	r24, 0x3E	; 62
    4e98:	83 bd       	out	0x23, r24	; 35
		// Enable Output Compare Match Interrupt for Timer 2
        TIMSK |= (1 << OCIE2);
    4e9a:	e7 e5       	ldi	r30, 0x57	; 87
    4e9c:	f0 e0       	ldi	r31, 0x00	; 0
    4e9e:	80 81       	ld	r24, Z
    4ea0:	80 68       	ori	r24, 0x80	; 128
    4ea2:	80 83       	st	Z, r24
        
		/* nppin pinnit sisntuloksi */
		DDRA &= ~(1 << PA0);
    4ea4:	ea e3       	ldi	r30, 0x3A	; 58
    4ea6:	f0 e0       	ldi	r31, 0x00	; 0
    4ea8:	80 81       	ld	r24, Z
    4eaa:	8e 7f       	andi	r24, 0xFE	; 254
    4eac:	80 83       	st	Z, r24
		DDRA &= ~(1 << PA2);
    4eae:	80 81       	ld	r24, Z
    4eb0:	8b 7f       	andi	r24, 0xFB	; 251
    4eb2:	80 83       	st	Z, r24
		DDRA &= ~(1 << PA4);
    4eb4:	80 81       	ld	r24, Z
    4eb6:	8f 7e       	andi	r24, 0xEF	; 239
    4eb8:	80 83       	st	Z, r24

		/* rele/led pinni ulostuloksi */
		DDRA |= (1 << PA6);
    4eba:	80 81       	ld	r24, Z
    4ebc:	80 64       	ori	r24, 0x40	; 64
    4ebe:	80 83       	st	Z, r24

		/* lcd-nytn alustaminen */
		lcd_init();
    4ec0:	0e 94 e5 27 	call	0x4fca	; 0x4fca <lcd_init>
        
}
    4ec4:	08 95       	ret

00004ec6 <main>:


int main(void) 
{
    init();
    4ec6:	0e 94 3c 27 	call	0x4e78	; 0x4e78 <init>
    sei();
    4eca:	78 94       	sei
    
    setup_lcd();
    4ecc:	0e 94 19 27 	call	0x4e32	; 0x4e32 <setup_lcd>
    
    // Basic state machine (0) Intro -> (1) Wait to Start -> (2) Game Loop -> (3) Game Over
    //                                   ^_____________________________________|
    // (0)
    show_intro();
    4ed0:	0e 94 be 24 	call	0x497c	; 0x497c <show_intro>
    
    // Stepping through the states
    while(1)
    {
        // (1)
        wait_car_jump();
    4ed4:	0e 94 d0 26 	call	0x4da0	; 0x4da0 <wait_car_jump>
        
        reset_state();
    4ed8:	0e 94 df 26 	call	0x4dbe	; 0x4dbe <reset_state>
        play_loop();
    4edc:	0e 94 0d 23 	call	0x461a	; 0x461a <play_loop>
        
        // (2)
        game_loop();
    4ee0:	0e 94 fb 25 	call	0x4bf6	; 0x4bf6 <game_loop>

        play_crash();
    4ee4:	0e 94 1c 23 	call	0x4638	; 0x4638 <play_crash>
        
        // (3)
        show_game_over();
    4ee8:	0e 94 f1 24 	call	0x49e2	; 0x49e2 <show_game_over>
    4eec:	f3 cf       	rjmp	.-26     	; 0x4ed4 <main+0xe>

00004eee <pulse>:
static int
pulse(void)
{
  int v;

  PORTC |= 4;                /* EN = 1 */
    4eee:	e5 e3       	ldi	r30, 0x35	; 53
    4ef0:	f0 e0       	ldi	r31, 0x00	; 0
    4ef2:	80 81       	ld	r24, Z
    4ef4:	84 60       	ori	r24, 0x04	; 4
    4ef6:	80 83       	st	Z, r24
    milliseconds can be achieved.
 */
void
_delay_loop_2(uint16_t __count)
{
	__asm__ volatile (
    4ef8:	80 e9       	ldi	r24, 0x90	; 144
    4efa:	91 e0       	ldi	r25, 0x01	; 1
    4efc:	01 97       	sbiw	r24, 0x01	; 1
    4efe:	f1 f7       	brne	.-4      	; 0x4efc <pulse+0xe>
  _delay_ms(0.1);            /* short delay */
  v = PINC>>4;               /* read data bus */
    4f00:	83 b3       	in	r24, 0x13	; 19
  PORTC &= ~4;               /* EN = 0 */
    4f02:	90 81       	ld	r25, Z
    4f04:	9b 7f       	andi	r25, 0xFB	; 251
    4f06:	90 83       	st	Z, r25

  return v;
}
    4f08:	82 95       	swap	r24
    4f0a:	8f 70       	andi	r24, 0x0F	; 15
    4f0c:	90 e0       	ldi	r25, 0x00	; 0
    4f0e:	08 95       	ret

00004f10 <read_nibble>:
}

static int
read_nibble(int rs)
{
  DDRC = 0x0F;               /* set data pins to input */
    4f10:	9f e0       	ldi	r25, 0x0F	; 15
    4f12:	94 bb       	out	0x14, r25	; 20
  PORTC = rs|2;              /* set register */
    4f14:	82 60       	ori	r24, 0x02	; 2
    4f16:	85 bb       	out	0x15, r24	; 21
  return pulse();            /* read pulse */
    4f18:	0e 94 77 27 	call	0x4eee	; 0x4eee <pulse>
}
    4f1c:	08 95       	ret

00004f1e <read_byte>:
}

/* read a byte without waiting for the busy flag. */
static int
read_byte(int rs)
{
    4f1e:	ef 92       	push	r14
    4f20:	ff 92       	push	r15
    4f22:	0f 93       	push	r16
    4f24:	1f 93       	push	r17
    4f26:	7c 01       	movw	r14, r24
  int v;
  
  v = read_nibble(rs)<<4;
    4f28:	0e 94 88 27 	call	0x4f10	; 0x4f10 <read_nibble>
    4f2c:	8c 01       	movw	r16, r24
    4f2e:	02 95       	swap	r16
    4f30:	12 95       	swap	r17
    4f32:	10 7f       	andi	r17, 0xF0	; 240
    4f34:	10 27       	eor	r17, r16
    4f36:	00 7f       	andi	r16, 0xF0	; 240
    4f38:	10 27       	eor	r17, r16
  v|= read_nibble(rs);
    4f3a:	c7 01       	movw	r24, r14
    4f3c:	0e 94 88 27 	call	0x4f10	; 0x4f10 <read_nibble>
    4f40:	08 2b       	or	r16, r24
    4f42:	19 2b       	or	r17, r25

  return v;
}
    4f44:	80 2f       	mov	r24, r16
    4f46:	91 2f       	mov	r25, r17
    4f48:	1f 91       	pop	r17
    4f4a:	0f 91       	pop	r16
    4f4c:	ff 90       	pop	r15
    4f4e:	ef 90       	pop	r14
    4f50:	08 95       	ret

00004f52 <write_nibble>:
}

static void
write_nibble(int v, int rs)
{
  DDRC = 0xFF;               /* set data pins to output */
    4f52:	2f ef       	ldi	r18, 0xFF	; 255
    4f54:	24 bb       	out	0x14, r18	; 20
  PORTC = rs|((v&0xF)<<4);   /* set register and data */
    4f56:	82 95       	swap	r24
    4f58:	92 95       	swap	r25
    4f5a:	90 7f       	andi	r25, 0xF0	; 240
    4f5c:	98 27       	eor	r25, r24
    4f5e:	80 7f       	andi	r24, 0xF0	; 240
    4f60:	98 27       	eor	r25, r24
    4f62:	68 2b       	or	r22, r24
    4f64:	65 bb       	out	0x15, r22	; 21
  pulse();                   /* write pulse */
    4f66:	0e 94 77 27 	call	0x4eee	; 0x4eee <pulse>
}
    4f6a:	08 95       	ret

00004f6c <wait>:

/* wait until the busy flag is clear. */
void
wait(void)
{
  while (read_byte(0)&0x80)
    4f6c:	80 e0       	ldi	r24, 0x00	; 0
    4f6e:	90 e0       	ldi	r25, 0x00	; 0
    4f70:	0e 94 8f 27 	call	0x4f1e	; 0x4f1e <read_byte>
    4f74:	88 23       	and	r24, r24
    4f76:	d4 f3       	brlt	.-12     	; 0x4f6c <wait>
    ;
}
    4f78:	08 95       	ret

00004f7a <lcd_read>:
}

/* read a byte from lcd register rs. */
int
lcd_read(int rs)
{
    4f7a:	0f 93       	push	r16
    4f7c:	1f 93       	push	r17
  int v;
  
  v = read_byte(rs);
    4f7e:	0e 94 8f 27 	call	0x4f1e	; 0x4f1e <read_byte>
    4f82:	18 2f       	mov	r17, r24
    4f84:	09 2f       	mov	r16, r25
  wait();
    4f86:	0e 94 b6 27 	call	0x4f6c	; 0x4f6c <wait>

  return v;
}
    4f8a:	81 2f       	mov	r24, r17
    4f8c:	90 2f       	mov	r25, r16
    4f8e:	1f 91       	pop	r17
    4f90:	0f 91       	pop	r16
    4f92:	08 95       	ret

00004f94 <lcd_write>:
}

/* write a byte into register rs (0 = control, 1 = data). */
void
lcd_write(int v, int rs)
{
    4f94:	ef 92       	push	r14
    4f96:	ff 92       	push	r15
    4f98:	0f 93       	push	r16
    4f9a:	1f 93       	push	r17
    4f9c:	8c 01       	movw	r16, r24
    4f9e:	7b 01       	movw	r14, r22
  write_nibble(v>>4,rs);     /* first the high nibble */
    4fa0:	95 95       	asr	r25
    4fa2:	87 95       	ror	r24
    4fa4:	95 95       	asr	r25
    4fa6:	87 95       	ror	r24
    4fa8:	95 95       	asr	r25
    4faa:	87 95       	ror	r24
    4fac:	95 95       	asr	r25
    4fae:	87 95       	ror	r24
    4fb0:	0e 94 a9 27 	call	0x4f52	; 0x4f52 <write_nibble>
  write_nibble(v,rs);        /* and then the low */
    4fb4:	c8 01       	movw	r24, r16
    4fb6:	b7 01       	movw	r22, r14
    4fb8:	0e 94 a9 27 	call	0x4f52	; 0x4f52 <write_nibble>
  wait();
    4fbc:	0e 94 b6 27 	call	0x4f6c	; 0x4f6c <wait>
}
    4fc0:	1f 91       	pop	r17
    4fc2:	0f 91       	pop	r16
    4fc4:	ff 90       	pop	r15
    4fc6:	ef 90       	pop	r14
    4fc8:	08 95       	ret

00004fca <lcd_init>:


/* initialize lcd (see HD44780 datasheet) */
void
lcd_init(void)
{
    4fca:	0f 93       	push	r16
    4fcc:	1f 93       	push	r17
	/* set interface to be 4 bits long */
  write_nibble(3,0); _delay_ms(5);
    4fce:	83 e0       	ldi	r24, 0x03	; 3
    4fd0:	90 e0       	ldi	r25, 0x00	; 0
    4fd2:	60 e0       	ldi	r22, 0x00	; 0
    4fd4:	70 e0       	ldi	r23, 0x00	; 0
    4fd6:	0e 94 a9 27 	call	0x4f52	; 0x4f52 <write_nibble>
    4fda:	00 e2       	ldi	r16, 0x20	; 32
    4fdc:	1e e4       	ldi	r17, 0x4E	; 78
    4fde:	c8 01       	movw	r24, r16
    4fe0:	01 97       	sbiw	r24, 0x01	; 1
    4fe2:	f1 f7       	brne	.-4      	; 0x4fe0 <lcd_init+0x16>
  write_nibble(3,0); _delay_ms(5);
    4fe4:	83 e0       	ldi	r24, 0x03	; 3
    4fe6:	90 e0       	ldi	r25, 0x00	; 0
    4fe8:	60 e0       	ldi	r22, 0x00	; 0
    4fea:	70 e0       	ldi	r23, 0x00	; 0
    4fec:	0e 94 a9 27 	call	0x4f52	; 0x4f52 <write_nibble>
    4ff0:	c8 01       	movw	r24, r16
    4ff2:	01 97       	sbiw	r24, 0x01	; 1
    4ff4:	f1 f7       	brne	.-4      	; 0x4ff2 <lcd_init+0x28>
  write_nibble(3,0); _delay_ms(5);
    4ff6:	83 e0       	ldi	r24, 0x03	; 3
    4ff8:	90 e0       	ldi	r25, 0x00	; 0
    4ffa:	60 e0       	ldi	r22, 0x00	; 0
    4ffc:	70 e0       	ldi	r23, 0x00	; 0
    4ffe:	0e 94 a9 27 	call	0x4f52	; 0x4f52 <write_nibble>
    5002:	c8 01       	movw	r24, r16
    5004:	01 97       	sbiw	r24, 0x01	; 1
    5006:	f1 f7       	brne	.-4      	; 0x5004 <lcd_init+0x3a>
  write_nibble(2,0); _delay_ms(5);
    5008:	82 e0       	ldi	r24, 0x02	; 2
    500a:	90 e0       	ldi	r25, 0x00	; 0
    500c:	60 e0       	ldi	r22, 0x00	; 0
    500e:	70 e0       	ldi	r23, 0x00	; 0
    5010:	0e 94 a9 27 	call	0x4f52	; 0x4f52 <write_nibble>
    5014:	c8 01       	movw	r24, r16
    5016:	01 97       	sbiw	r24, 0x01	; 1
    5018:	f1 f7       	brne	.-4      	; 0x5016 <lcd_init+0x4c>

	/* function set: set number of lines (bit 3) and font (bit 2) */
  lcd_write_ctrl(LCD_FUNCTION|0x0C);
    501a:	8c e2       	ldi	r24, 0x2C	; 44
    501c:	90 e0       	ldi	r25, 0x00	; 0
    501e:	60 e0       	ldi	r22, 0x00	; 0
    5020:	70 e0       	ldi	r23, 0x00	; 0
    5022:	0e 94 ca 27 	call	0x4f94	; 0x4f94 <lcd_write>
  lcd_write_ctrl(LCD_OFF);
    5026:	88 e0       	ldi	r24, 0x08	; 8
    5028:	90 e0       	ldi	r25, 0x00	; 0
    502a:	60 e0       	ldi	r22, 0x00	; 0
    502c:	70 e0       	ldi	r23, 0x00	; 0
    502e:	0e 94 ca 27 	call	0x4f94	; 0x4f94 <lcd_write>
  lcd_write_ctrl(LCD_CLEAR);
    5032:	81 e0       	ldi	r24, 0x01	; 1
    5034:	90 e0       	ldi	r25, 0x00	; 0
    5036:	60 e0       	ldi	r22, 0x00	; 0
    5038:	70 e0       	ldi	r23, 0x00	; 0
    503a:	0e 94 ca 27 	call	0x4f94	; 0x4f94 <lcd_write>
	/* entry mode set: increment DDRAM pointer when a character is written */
  lcd_write_ctrl(LCD_MODE|0x02);
    503e:	86 e0       	ldi	r24, 0x06	; 6
    5040:	90 e0       	ldi	r25, 0x00	; 0
    5042:	60 e0       	ldi	r22, 0x00	; 0
    5044:	70 e0       	ldi	r23, 0x00	; 0
    5046:	0e 94 ca 27 	call	0x4f94	; 0x4f94 <lcd_write>
}
    504a:	1f 91       	pop	r17
    504c:	0f 91       	pop	r16
    504e:	08 95       	ret

00005050 <lcd_set_cursor>:


/* Set the cursor (by setting DDRAM address) */
void
lcd_set_cursor(unsigned int col, unsigned int row)
{
    5050:	ac 01       	movw	r20, r24
    if(row > NUMROWS-1) row = NUMROWS - 1;
    char _row_offset = _row_offsets[row];
    
    lcd_write_ctrl(LCD_DDRAM | (col + _row_offset));
    5052:	86 2f       	mov	r24, r22
    5054:	97 2f       	mov	r25, r23
    5056:	00 97       	sbiw	r24, 0x00	; 0
    5058:	11 f0       	breq	.+4      	; 0x505e <lcd_set_cursor+0xe>
    505a:	81 e0       	ldi	r24, 0x01	; 1
    505c:	90 e0       	ldi	r25, 0x00	; 0
    505e:	fc 01       	movw	r30, r24
    5060:	ee 56       	subi	r30, 0x6E	; 110
    5062:	fe 4f       	sbci	r31, 0xFE	; 254
    5064:	80 81       	ld	r24, Z
    5066:	9a 01       	movw	r18, r20
    5068:	28 0f       	add	r18, r24
    506a:	31 1d       	adc	r19, r1
    506c:	c9 01       	movw	r24, r18
    506e:	80 68       	ori	r24, 0x80	; 128
    5070:	60 e0       	ldi	r22, 0x00	; 0
    5072:	70 e0       	ldi	r23, 0x00	; 0
    5074:	0e 94 ca 27 	call	0x4f94	; 0x4f94 <lcd_write>
    5078:	08 95       	ret

0000507a <lcd_create_glyph>:
const unsigned int NUMROWS = 2;
/* First character position mapping to DDRAM address for each LCD row */
char _row_offsets[]= {0x00, 0x40};

/* Write new character to CGRAM */
void lcd_create_glyph(int loc, const char* charmap){
    507a:	0f 93       	push	r16
    507c:	1f 93       	push	r17
    507e:	cf 93       	push	r28
    5080:	df 93       	push	r29
    5082:	8b 01       	movw	r16, r22
    // Using 5 x 8 character maps, then only 8 characters allowed
    loc &=  0x07;
    
    // Send Set CGRAM address instruction
    lcd_write_ctrl( LCD_CGRAM | (loc<<3) );
    5084:	87 70       	andi	r24, 0x07	; 7
    5086:	90 70       	andi	r25, 0x00	; 0
    5088:	88 0f       	add	r24, r24
    508a:	99 1f       	adc	r25, r25
    508c:	88 0f       	add	r24, r24
    508e:	99 1f       	adc	r25, r25
    5090:	88 0f       	add	r24, r24
    5092:	99 1f       	adc	r25, r25
    5094:	80 64       	ori	r24, 0x40	; 64
    5096:	60 e0       	ldi	r22, 0x00	; 0
    5098:	70 e0       	ldi	r23, 0x00	; 0
    509a:	0e 94 ca 27 	call	0x4f94	; 0x4f94 <lcd_write>
    509e:	c0 e0       	ldi	r28, 0x00	; 0
    50a0:	d0 e0       	ldi	r29, 0x00	; 0
    
    // Address Counter automatically increment, 
    // so we start sending the character row by row
    for(int i=0; i<8; i++){
        lcd_write_data( charmap[i] );
    50a2:	f8 01       	movw	r30, r16
    50a4:	ec 0f       	add	r30, r28
    50a6:	fd 1f       	adc	r31, r29
    50a8:	80 81       	ld	r24, Z
    50aa:	90 e0       	ldi	r25, 0x00	; 0
    50ac:	61 e0       	ldi	r22, 0x01	; 1
    50ae:	70 e0       	ldi	r23, 0x00	; 0
    50b0:	0e 94 ca 27 	call	0x4f94	; 0x4f94 <lcd_write>
    // Send Set CGRAM address instruction
    lcd_write_ctrl( LCD_CGRAM | (loc<<3) );
    
    // Address Counter automatically increment, 
    // so we start sending the character row by row
    for(int i=0; i<8; i++){
    50b4:	21 96       	adiw	r28, 0x01	; 1
    50b6:	c8 30       	cpi	r28, 0x08	; 8
    50b8:	d1 05       	cpc	r29, r1
    50ba:	99 f7       	brne	.-26     	; 0x50a2 <lcd_create_glyph+0x28>
        lcd_write_data( charmap[i] );
    }
}
    50bc:	df 91       	pop	r29
    50be:	cf 91       	pop	r28
    50c0:	1f 91       	pop	r17
    50c2:	0f 91       	pop	r16
    50c4:	08 95       	ret

000050c6 <lcd_print>:

/* Print a null-terminated string to the LCD from the current position */
void
lcd_print(const char* buffer){
    50c6:	0f 93       	push	r16
    50c8:	1f 93       	push	r17
    50ca:	cf 93       	push	r28
    50cc:	df 93       	push	r29
    50ce:	8c 01       	movw	r16, r24
    unsigned int size = strlen(buffer);
    50d0:	a8 2f       	mov	r26, r24
    50d2:	b1 2f       	mov	r27, r17
    50d4:	fd 01       	movw	r30, r26
    50d6:	01 90       	ld	r0, Z+
    50d8:	00 20       	and	r0, r0
    50da:	e9 f7       	brne	.-6      	; 0x50d6 <lcd_print+0x10>
    50dc:	31 97       	sbiw	r30, 0x01	; 1
    50de:	ef 01       	movw	r28, r30
    50e0:	ca 1b       	sub	r28, r26
    50e2:	db 0b       	sbc	r29, r27
    while(size--){
    50e4:	51 f0       	breq	.+20     	; 0x50fa <lcd_print+0x34>
        lcd_write_data( *buffer++ );
    50e6:	f8 01       	movw	r30, r16
    50e8:	81 91       	ld	r24, Z+
    50ea:	8f 01       	movw	r16, r30
    50ec:	90 e0       	ldi	r25, 0x00	; 0
    50ee:	61 e0       	ldi	r22, 0x01	; 1
    50f0:	70 e0       	ldi	r23, 0x00	; 0
    50f2:	0e 94 ca 27 	call	0x4f94	; 0x4f94 <lcd_write>
    50f6:	21 97       	sbiw	r28, 0x01	; 1

/* Print a null-terminated string to the LCD from the current position */
void
lcd_print(const char* buffer){
    unsigned int size = strlen(buffer);
    while(size--){
    50f8:	b1 f7       	brne	.-20     	; 0x50e6 <lcd_print+0x20>
        lcd_write_data( *buffer++ );
    }
}
    50fa:	df 91       	pop	r29
    50fc:	cf 91       	pop	r28
    50fe:	1f 91       	pop	r17
    5100:	0f 91       	pop	r16
    5102:	08 95       	ret

00005104 <delay_msec>:
#include <stdlib.h>

/* Implement more flexible but less acurate delay since maximum delay of provided _delay_ms is 262.14 ms / F_CPU in MHz*/
/* The provided delay is chunked into 100ms delays hopefully not hitting _delay_ms limit */
void delay_msec(int ms)
{
    5104:	af 92       	push	r10
    5106:	bf 92       	push	r11
    5108:	cf 92       	push	r12
    510a:	df 92       	push	r13
    510c:	ef 92       	push	r14
    510e:	ff 92       	push	r15
    5110:	0f 93       	push	r16
    5112:	1f 93       	push	r17
    5114:	8c 01       	movw	r16, r24
    int s = ms/100;
    5116:	64 e6       	ldi	r22, 0x64	; 100
    5118:	70 e0       	ldi	r23, 0x00	; 0
    511a:	0e 94 e6 2f 	call	0x5fcc	; 0x5fcc <__divmodhi4>
    511e:	86 2f       	mov	r24, r22
    5120:	97 2f       	mov	r25, r23
    5122:	dc 01       	movw	r26, r24
    int rem = ms - 100*s;
    for(;s>0;s--){
    5124:	1a 16       	cp	r1, r26
    5126:	1b 06       	cpc	r1, r27
    5128:	8c f4       	brge	.+34     	; 0x514c <delay_msec+0x48>
    512a:	bd 01       	movw	r22, r26
    512c:	e8 ee       	ldi	r30, 0xE8	; 232
    512e:	f3 e0       	ldi	r31, 0x03	; 3
    5130:	40 e9       	ldi	r20, 0x90	; 144
    5132:	51 e0       	ldi	r21, 0x01	; 1
    5134:	9f 01       	movw	r18, r30
    5136:	ca 01       	movw	r24, r20
    5138:	01 97       	sbiw	r24, 0x01	; 1
    513a:	f1 f7       	brne	.-4      	; 0x5138 <delay_msec+0x34>
		__ticks = (uint16_t) (__ms * 10.0);
		while(__ticks)
		{
			// wait 1/10 ms
			_delay_loop_2(((F_CPU) / 4e3) / 10);
			__ticks --;
    513c:	21 50       	subi	r18, 0x01	; 1
    513e:	30 40       	sbci	r19, 0x00	; 0
		__ticks = 1;
	else if (__tmp > 65535)
	{
		//	__ticks = requested delay in 1/10 ms
		__ticks = (uint16_t) (__ms * 10.0);
		while(__ticks)
    5140:	d1 f7       	brne	.-12     	; 0x5136 <delay_msec+0x32>
    5142:	61 50       	subi	r22, 0x01	; 1
    5144:	70 40       	sbci	r23, 0x00	; 0
    5146:	16 16       	cp	r1, r22
    5148:	17 06       	cpc	r1, r23
    514a:	a4 f3       	brlt	.-24     	; 0x5134 <delay_msec+0x30>
        _delay_ms(100);
    }
    
    _delay_ms(rem); 
    514c:	8c e9       	ldi	r24, 0x9C	; 156
    514e:	9f ef       	ldi	r25, 0xFF	; 255
    5150:	a8 9f       	mul	r26, r24
    5152:	b0 01       	movw	r22, r0
    5154:	a9 9f       	mul	r26, r25
    5156:	70 0d       	add	r23, r0
    5158:	b8 9f       	mul	r27, r24
    515a:	70 0d       	add	r23, r0
    515c:	11 24       	eor	r1, r1
    515e:	60 0f       	add	r22, r16
    5160:	71 1f       	adc	r23, r17
    5162:	88 27       	eor	r24, r24
    5164:	77 fd       	sbrc	r23, 7
    5166:	80 95       	com	r24
    5168:	98 2f       	mov	r25, r24
    516a:	0e 94 3f 2d 	call	0x5a7e	; 0x5a7e <__floatsisf>
    516e:	5b 01       	movw	r10, r22
    5170:	6c 01       	movw	r12, r24
 */
void
_delay_ms(double __ms)
{
	uint16_t __ticks;
	double __tmp = ((F_CPU) / 4e3) * __ms;
    5172:	20 e0       	ldi	r18, 0x00	; 0
    5174:	30 e0       	ldi	r19, 0x00	; 0
    5176:	4a e7       	ldi	r20, 0x7A	; 122
    5178:	55 e4       	ldi	r21, 0x45	; 69
    517a:	0e 94 09 2b 	call	0x5612	; 0x5612 <__mulsf3>
    517e:	7b 01       	movw	r14, r22
    5180:	8c 01       	movw	r16, r24
	if (__tmp < 1.0)
    5182:	20 e0       	ldi	r18, 0x00	; 0
    5184:	30 e0       	ldi	r19, 0x00	; 0
    5186:	40 e8       	ldi	r20, 0x80	; 128
    5188:	5f e3       	ldi	r21, 0x3F	; 63
    518a:	0e 94 0f 2d 	call	0x5a1e	; 0x5a1e <__ltsf2>
    518e:	88 23       	and	r24, r24
    5190:	1c f4       	brge	.+6      	; 0x5198 <delay_msec+0x94>
    5192:	61 e0       	ldi	r22, 0x01	; 1
    5194:	70 e0       	ldi	r23, 0x00	; 0
    5196:	23 c0       	rjmp	.+70     	; 0x51de <delay_msec+0xda>
		__ticks = 1;
	else if (__tmp > 65535)
    5198:	c8 01       	movw	r24, r16
    519a:	b7 01       	movw	r22, r14
    519c:	20 e0       	ldi	r18, 0x00	; 0
    519e:	3f ef       	ldi	r19, 0xFF	; 255
    51a0:	4f e7       	ldi	r20, 0x7F	; 127
    51a2:	57 e4       	ldi	r21, 0x47	; 71
    51a4:	0e 94 af 2c 	call	0x595e	; 0x595e <__gtsf2>
    51a8:	18 16       	cp	r1, r24
    51aa:	ac f4       	brge	.+42     	; 0x51d6 <delay_msec+0xd2>
	{
		//	__ticks = requested delay in 1/10 ms
		__ticks = (uint16_t) (__ms * 10.0);
    51ac:	c6 01       	movw	r24, r12
    51ae:	b5 01       	movw	r22, r10
    51b0:	20 e0       	ldi	r18, 0x00	; 0
    51b2:	30 e0       	ldi	r19, 0x00	; 0
    51b4:	40 e2       	ldi	r20, 0x20	; 32
    51b6:	51 e4       	ldi	r21, 0x41	; 65
    51b8:	0e 94 09 2b 	call	0x5612	; 0x5612 <__mulsf3>
    51bc:	0e 94 33 29 	call	0x5266	; 0x5266 <__fixunssfsi>
    51c0:	cb 01       	movw	r24, r22
		while(__ticks)
    51c2:	67 2b       	or	r22, r23
    51c4:	79 f0       	breq	.+30     	; 0x51e4 <delay_msec+0xe0>
    51c6:	20 e9       	ldi	r18, 0x90	; 144
    51c8:	31 e0       	ldi	r19, 0x01	; 1
    51ca:	f9 01       	movw	r30, r18
    51cc:	31 97       	sbiw	r30, 0x01	; 1
    51ce:	f1 f7       	brne	.-4      	; 0x51cc <delay_msec+0xc8>
		{
			// wait 1/10 ms
			_delay_loop_2(((F_CPU) / 4e3) / 10);
			__ticks --;
    51d0:	01 97       	sbiw	r24, 0x01	; 1
		__ticks = 1;
	else if (__tmp > 65535)
	{
		//	__ticks = requested delay in 1/10 ms
		__ticks = (uint16_t) (__ms * 10.0);
		while(__ticks)
    51d2:	d9 f7       	brne	.-10     	; 0x51ca <delay_msec+0xc6>
    51d4:	07 c0       	rjmp	.+14     	; 0x51e4 <delay_msec+0xe0>
			__ticks --;
		}
		return;
	}
	else
		__ticks = (uint16_t)__tmp;
    51d6:	c8 01       	movw	r24, r16
    51d8:	b7 01       	movw	r22, r14
    51da:	0e 94 33 29 	call	0x5266	; 0x5266 <__fixunssfsi>
    51de:	cb 01       	movw	r24, r22
    51e0:	01 97       	sbiw	r24, 0x01	; 1
    51e2:	f1 f7       	brne	.-4      	; 0x51e0 <delay_msec+0xdc>
}
    51e4:	1f 91       	pop	r17
    51e6:	0f 91       	pop	r16
    51e8:	ff 90       	pop	r15
    51ea:	ef 90       	pop	r14
    51ec:	df 90       	pop	r13
    51ee:	cf 90       	pop	r12
    51f0:	bf 90       	pop	r11
    51f2:	af 90       	pop	r10
    51f4:	08 95       	ret

000051f6 <rrand>:



int rrand(int max)
{
    51f6:	af 92       	push	r10
    51f8:	bf 92       	push	r11
    51fa:	cf 92       	push	r12
    51fc:	df 92       	push	r13
    51fe:	ef 92       	push	r14
    5200:	ff 92       	push	r15
    5202:	0f 93       	push	r16
    5204:	1f 93       	push	r17
    5206:	7c 01       	movw	r14, r24
    int r = (rand() * 1.0 / RAND_MAX) * max;
    5208:	0e 94 dc 30 	call	0x61b8	; 0x61b8 <rand>
    520c:	aa 27       	eor	r26, r26
    520e:	97 fd       	sbrc	r25, 7
    5210:	a0 95       	com	r26
    5212:	ba 2f       	mov	r27, r26
    5214:	bc 01       	movw	r22, r24
    5216:	cd 01       	movw	r24, r26
    5218:	0e 94 3f 2d 	call	0x5a7e	; 0x5a7e <__floatsisf>
    521c:	20 e0       	ldi	r18, 0x00	; 0
    521e:	3e ef       	ldi	r19, 0xFE	; 254
    5220:	4f ef       	ldi	r20, 0xFF	; 255
    5222:	56 e4       	ldi	r21, 0x46	; 70
    5224:	0e 94 03 2c 	call	0x5806	; 0x5806 <__divsf3>
    5228:	5b 01       	movw	r10, r22
    522a:	6c 01       	movw	r12, r24
    522c:	00 27       	eor	r16, r16
    522e:	f7 fc       	sbrc	r15, 7
    5230:	00 95       	com	r16
    5232:	10 2f       	mov	r17, r16
    5234:	c8 01       	movw	r24, r16
    5236:	b7 01       	movw	r22, r14
    5238:	0e 94 3f 2d 	call	0x5a7e	; 0x5a7e <__floatsisf>
    523c:	9b 01       	movw	r18, r22
    523e:	ac 01       	movw	r20, r24
    5240:	c6 01       	movw	r24, r12
    5242:	b5 01       	movw	r22, r10
    5244:	0e 94 09 2b 	call	0x5612	; 0x5612 <__mulsf3>
    5248:	0e 94 9d 2d 	call	0x5b3a	; 0x5b3a <__fixsfsi>
    524c:	9b 01       	movw	r18, r22
    524e:	ac 01       	movw	r20, r24
    return r;
}
    5250:	86 2f       	mov	r24, r22
    5252:	93 2f       	mov	r25, r19
    5254:	1f 91       	pop	r17
    5256:	0f 91       	pop	r16
    5258:	ff 90       	pop	r15
    525a:	ef 90       	pop	r14
    525c:	df 90       	pop	r13
    525e:	cf 90       	pop	r12
    5260:	bf 90       	pop	r11
    5262:	af 90       	pop	r10
    5264:	08 95       	ret

00005266 <__fixunssfsi>:
    5266:	ef 92       	push	r14
    5268:	ff 92       	push	r15
    526a:	0f 93       	push	r16
    526c:	1f 93       	push	r17
    526e:	7b 01       	movw	r14, r22
    5270:	8c 01       	movw	r16, r24
    5272:	20 e0       	ldi	r18, 0x00	; 0
    5274:	30 e0       	ldi	r19, 0x00	; 0
    5276:	40 e0       	ldi	r20, 0x00	; 0
    5278:	5f e4       	ldi	r21, 0x4F	; 79
    527a:	0e 94 df 2c 	call	0x59be	; 0x59be <__gesf2>
    527e:	88 23       	and	r24, r24
    5280:	8c f0       	brlt	.+34     	; 0x52a4 <__fixunssfsi+0x3e>
    5282:	c8 01       	movw	r24, r16
    5284:	b7 01       	movw	r22, r14
    5286:	20 e0       	ldi	r18, 0x00	; 0
    5288:	30 e0       	ldi	r19, 0x00	; 0
    528a:	40 e0       	ldi	r20, 0x00	; 0
    528c:	5f e4       	ldi	r21, 0x4F	; 79
    528e:	0e 94 ab 2a 	call	0x5556	; 0x5556 <__subsf3>
    5292:	0e 94 9d 2d 	call	0x5b3a	; 0x5b3a <__fixsfsi>
    5296:	9b 01       	movw	r18, r22
    5298:	ac 01       	movw	r20, r24
    529a:	20 50       	subi	r18, 0x00	; 0
    529c:	30 40       	sbci	r19, 0x00	; 0
    529e:	40 40       	sbci	r20, 0x00	; 0
    52a0:	50 48       	sbci	r21, 0x80	; 128
    52a2:	06 c0       	rjmp	.+12     	; 0x52b0 <__fixunssfsi+0x4a>
    52a4:	c8 01       	movw	r24, r16
    52a6:	b7 01       	movw	r22, r14
    52a8:	0e 94 9d 2d 	call	0x5b3a	; 0x5b3a <__fixsfsi>
    52ac:	9b 01       	movw	r18, r22
    52ae:	ac 01       	movw	r20, r24
    52b0:	b9 01       	movw	r22, r18
    52b2:	ca 01       	movw	r24, r20
    52b4:	1f 91       	pop	r17
    52b6:	0f 91       	pop	r16
    52b8:	ff 90       	pop	r15
    52ba:	ef 90       	pop	r14
    52bc:	08 95       	ret

000052be <_fpadd_parts>:
    52be:	a0 e0       	ldi	r26, 0x00	; 0
    52c0:	b0 e0       	ldi	r27, 0x00	; 0
    52c2:	e5 e6       	ldi	r30, 0x65	; 101
    52c4:	f9 e2       	ldi	r31, 0x29	; 41
    52c6:	0c 94 4a 30 	jmp	0x6094	; 0x6094 <__prologue_saves__>
    52ca:	dc 01       	movw	r26, r24
    52cc:	2b 01       	movw	r4, r22
    52ce:	fa 01       	movw	r30, r20
    52d0:	9c 91       	ld	r25, X
    52d2:	92 30       	cpi	r25, 0x02	; 2
    52d4:	08 f4       	brcc	.+2      	; 0x52d8 <_fpadd_parts+0x1a>
    52d6:	39 c1       	rjmp	.+626    	; 0x554a <_fpadd_parts+0x28c>
    52d8:	eb 01       	movw	r28, r22
    52da:	88 81       	ld	r24, Y
    52dc:	82 30       	cpi	r24, 0x02	; 2
    52de:	08 f4       	brcc	.+2      	; 0x52e2 <_fpadd_parts+0x24>
    52e0:	33 c1       	rjmp	.+614    	; 0x5548 <_fpadd_parts+0x28a>
    52e2:	94 30       	cpi	r25, 0x04	; 4
    52e4:	69 f4       	brne	.+26     	; 0x5300 <_fpadd_parts+0x42>
    52e6:	84 30       	cpi	r24, 0x04	; 4
    52e8:	09 f0       	breq	.+2      	; 0x52ec <_fpadd_parts+0x2e>
    52ea:	2f c1       	rjmp	.+606    	; 0x554a <_fpadd_parts+0x28c>
    52ec:	11 96       	adiw	r26, 0x01	; 1
    52ee:	9c 91       	ld	r25, X
    52f0:	11 97       	sbiw	r26, 0x01	; 1
    52f2:	89 81       	ldd	r24, Y+1	; 0x01
    52f4:	98 17       	cp	r25, r24
    52f6:	09 f4       	brne	.+2      	; 0x52fa <_fpadd_parts+0x3c>
    52f8:	28 c1       	rjmp	.+592    	; 0x554a <_fpadd_parts+0x28c>
    52fa:	a4 e9       	ldi	r26, 0x94	; 148
    52fc:	b1 e0       	ldi	r27, 0x01	; 1
    52fe:	25 c1       	rjmp	.+586    	; 0x554a <_fpadd_parts+0x28c>
    5300:	84 30       	cpi	r24, 0x04	; 4
    5302:	09 f4       	brne	.+2      	; 0x5306 <_fpadd_parts+0x48>
    5304:	21 c1       	rjmp	.+578    	; 0x5548 <_fpadd_parts+0x28a>
    5306:	82 30       	cpi	r24, 0x02	; 2
    5308:	a9 f4       	brne	.+42     	; 0x5334 <_fpadd_parts+0x76>
    530a:	92 30       	cpi	r25, 0x02	; 2
    530c:	09 f0       	breq	.+2      	; 0x5310 <_fpadd_parts+0x52>
    530e:	1d c1       	rjmp	.+570    	; 0x554a <_fpadd_parts+0x28c>
    5310:	9a 01       	movw	r18, r20
    5312:	ad 01       	movw	r20, r26
    5314:	88 e0       	ldi	r24, 0x08	; 8
    5316:	ea 01       	movw	r28, r20
    5318:	09 90       	ld	r0, Y+
    531a:	ae 01       	movw	r20, r28
    531c:	e9 01       	movw	r28, r18
    531e:	09 92       	st	Y+, r0
    5320:	9e 01       	movw	r18, r28
    5322:	81 50       	subi	r24, 0x01	; 1
    5324:	c1 f7       	brne	.-16     	; 0x5316 <_fpadd_parts+0x58>
    5326:	e2 01       	movw	r28, r4
    5328:	89 81       	ldd	r24, Y+1	; 0x01
    532a:	11 96       	adiw	r26, 0x01	; 1
    532c:	9c 91       	ld	r25, X
    532e:	89 23       	and	r24, r25
    5330:	81 83       	std	Z+1, r24	; 0x01
    5332:	08 c1       	rjmp	.+528    	; 0x5544 <_fpadd_parts+0x286>
    5334:	92 30       	cpi	r25, 0x02	; 2
    5336:	09 f4       	brne	.+2      	; 0x533a <_fpadd_parts+0x7c>
    5338:	07 c1       	rjmp	.+526    	; 0x5548 <_fpadd_parts+0x28a>
    533a:	12 96       	adiw	r26, 0x02	; 2
    533c:	2d 90       	ld	r2, X+
    533e:	3c 90       	ld	r3, X
    5340:	13 97       	sbiw	r26, 0x03	; 3
    5342:	eb 01       	movw	r28, r22
    5344:	8a 81       	ldd	r24, Y+2	; 0x02
    5346:	9b 81       	ldd	r25, Y+3	; 0x03
    5348:	14 96       	adiw	r26, 0x04	; 4
    534a:	ad 90       	ld	r10, X+
    534c:	bd 90       	ld	r11, X+
    534e:	cd 90       	ld	r12, X+
    5350:	dc 90       	ld	r13, X
    5352:	17 97       	sbiw	r26, 0x07	; 7
    5354:	ec 80       	ldd	r14, Y+4	; 0x04
    5356:	fd 80       	ldd	r15, Y+5	; 0x05
    5358:	0e 81       	ldd	r16, Y+6	; 0x06
    535a:	1f 81       	ldd	r17, Y+7	; 0x07
    535c:	91 01       	movw	r18, r2
    535e:	28 1b       	sub	r18, r24
    5360:	39 0b       	sbc	r19, r25
    5362:	b9 01       	movw	r22, r18
    5364:	37 ff       	sbrs	r19, 7
    5366:	04 c0       	rjmp	.+8      	; 0x5370 <_fpadd_parts+0xb2>
    5368:	66 27       	eor	r22, r22
    536a:	77 27       	eor	r23, r23
    536c:	62 1b       	sub	r22, r18
    536e:	73 0b       	sbc	r23, r19
    5370:	60 32       	cpi	r22, 0x20	; 32
    5372:	71 05       	cpc	r23, r1
    5374:	0c f0       	brlt	.+2      	; 0x5378 <_fpadd_parts+0xba>
    5376:	61 c0       	rjmp	.+194    	; 0x543a <_fpadd_parts+0x17c>
    5378:	12 16       	cp	r1, r18
    537a:	13 06       	cpc	r1, r19
    537c:	6c f5       	brge	.+90     	; 0x53d8 <_fpadd_parts+0x11a>
    537e:	37 01       	movw	r6, r14
    5380:	48 01       	movw	r8, r16
    5382:	06 2e       	mov	r0, r22
    5384:	04 c0       	rjmp	.+8      	; 0x538e <_fpadd_parts+0xd0>
    5386:	96 94       	lsr	r9
    5388:	87 94       	ror	r8
    538a:	77 94       	ror	r7
    538c:	67 94       	ror	r6
    538e:	0a 94       	dec	r0
    5390:	d2 f7       	brpl	.-12     	; 0x5386 <_fpadd_parts+0xc8>
    5392:	21 e0       	ldi	r18, 0x01	; 1
    5394:	30 e0       	ldi	r19, 0x00	; 0
    5396:	40 e0       	ldi	r20, 0x00	; 0
    5398:	50 e0       	ldi	r21, 0x00	; 0
    539a:	04 c0       	rjmp	.+8      	; 0x53a4 <_fpadd_parts+0xe6>
    539c:	22 0f       	add	r18, r18
    539e:	33 1f       	adc	r19, r19
    53a0:	44 1f       	adc	r20, r20
    53a2:	55 1f       	adc	r21, r21
    53a4:	6a 95       	dec	r22
    53a6:	d2 f7       	brpl	.-12     	; 0x539c <_fpadd_parts+0xde>
    53a8:	21 50       	subi	r18, 0x01	; 1
    53aa:	30 40       	sbci	r19, 0x00	; 0
    53ac:	40 40       	sbci	r20, 0x00	; 0
    53ae:	50 40       	sbci	r21, 0x00	; 0
    53b0:	2e 21       	and	r18, r14
    53b2:	3f 21       	and	r19, r15
    53b4:	40 23       	and	r20, r16
    53b6:	51 23       	and	r21, r17
    53b8:	21 15       	cp	r18, r1
    53ba:	31 05       	cpc	r19, r1
    53bc:	41 05       	cpc	r20, r1
    53be:	51 05       	cpc	r21, r1
    53c0:	21 f0       	breq	.+8      	; 0x53ca <_fpadd_parts+0x10c>
    53c2:	21 e0       	ldi	r18, 0x01	; 1
    53c4:	30 e0       	ldi	r19, 0x00	; 0
    53c6:	40 e0       	ldi	r20, 0x00	; 0
    53c8:	50 e0       	ldi	r21, 0x00	; 0
    53ca:	79 01       	movw	r14, r18
    53cc:	8a 01       	movw	r16, r20
    53ce:	e6 28       	or	r14, r6
    53d0:	f7 28       	or	r15, r7
    53d2:	08 29       	or	r16, r8
    53d4:	19 29       	or	r17, r9
    53d6:	3c c0       	rjmp	.+120    	; 0x5450 <_fpadd_parts+0x192>
    53d8:	23 2b       	or	r18, r19
    53da:	d1 f1       	breq	.+116    	; 0x5450 <_fpadd_parts+0x192>
    53dc:	26 0e       	add	r2, r22
    53de:	37 1e       	adc	r3, r23
    53e0:	35 01       	movw	r6, r10
    53e2:	46 01       	movw	r8, r12
    53e4:	06 2e       	mov	r0, r22
    53e6:	04 c0       	rjmp	.+8      	; 0x53f0 <_fpadd_parts+0x132>
    53e8:	96 94       	lsr	r9
    53ea:	87 94       	ror	r8
    53ec:	77 94       	ror	r7
    53ee:	67 94       	ror	r6
    53f0:	0a 94       	dec	r0
    53f2:	d2 f7       	brpl	.-12     	; 0x53e8 <_fpadd_parts+0x12a>
    53f4:	21 e0       	ldi	r18, 0x01	; 1
    53f6:	30 e0       	ldi	r19, 0x00	; 0
    53f8:	40 e0       	ldi	r20, 0x00	; 0
    53fa:	50 e0       	ldi	r21, 0x00	; 0
    53fc:	04 c0       	rjmp	.+8      	; 0x5406 <_fpadd_parts+0x148>
    53fe:	22 0f       	add	r18, r18
    5400:	33 1f       	adc	r19, r19
    5402:	44 1f       	adc	r20, r20
    5404:	55 1f       	adc	r21, r21
    5406:	6a 95       	dec	r22
    5408:	d2 f7       	brpl	.-12     	; 0x53fe <_fpadd_parts+0x140>
    540a:	21 50       	subi	r18, 0x01	; 1
    540c:	30 40       	sbci	r19, 0x00	; 0
    540e:	40 40       	sbci	r20, 0x00	; 0
    5410:	50 40       	sbci	r21, 0x00	; 0
    5412:	2a 21       	and	r18, r10
    5414:	3b 21       	and	r19, r11
    5416:	4c 21       	and	r20, r12
    5418:	5d 21       	and	r21, r13
    541a:	21 15       	cp	r18, r1
    541c:	31 05       	cpc	r19, r1
    541e:	41 05       	cpc	r20, r1
    5420:	51 05       	cpc	r21, r1
    5422:	21 f0       	breq	.+8      	; 0x542c <_fpadd_parts+0x16e>
    5424:	21 e0       	ldi	r18, 0x01	; 1
    5426:	30 e0       	ldi	r19, 0x00	; 0
    5428:	40 e0       	ldi	r20, 0x00	; 0
    542a:	50 e0       	ldi	r21, 0x00	; 0
    542c:	59 01       	movw	r10, r18
    542e:	6a 01       	movw	r12, r20
    5430:	a6 28       	or	r10, r6
    5432:	b7 28       	or	r11, r7
    5434:	c8 28       	or	r12, r8
    5436:	d9 28       	or	r13, r9
    5438:	0b c0       	rjmp	.+22     	; 0x5450 <_fpadd_parts+0x192>
    543a:	82 15       	cp	r24, r2
    543c:	93 05       	cpc	r25, r3
    543e:	2c f0       	brlt	.+10     	; 0x544a <_fpadd_parts+0x18c>
    5440:	1c 01       	movw	r2, r24
    5442:	aa 24       	eor	r10, r10
    5444:	bb 24       	eor	r11, r11
    5446:	65 01       	movw	r12, r10
    5448:	03 c0       	rjmp	.+6      	; 0x5450 <_fpadd_parts+0x192>
    544a:	ee 24       	eor	r14, r14
    544c:	ff 24       	eor	r15, r15
    544e:	87 01       	movw	r16, r14
    5450:	11 96       	adiw	r26, 0x01	; 1
    5452:	9c 91       	ld	r25, X
    5454:	d2 01       	movw	r26, r4
    5456:	11 96       	adiw	r26, 0x01	; 1
    5458:	8c 91       	ld	r24, X
    545a:	98 17       	cp	r25, r24
    545c:	09 f4       	brne	.+2      	; 0x5460 <_fpadd_parts+0x1a2>
    545e:	45 c0       	rjmp	.+138    	; 0x54ea <_fpadd_parts+0x22c>
    5460:	99 23       	and	r25, r25
    5462:	39 f0       	breq	.+14     	; 0x5472 <_fpadd_parts+0x1b4>
    5464:	a8 01       	movw	r20, r16
    5466:	97 01       	movw	r18, r14
    5468:	2a 19       	sub	r18, r10
    546a:	3b 09       	sbc	r19, r11
    546c:	4c 09       	sbc	r20, r12
    546e:	5d 09       	sbc	r21, r13
    5470:	06 c0       	rjmp	.+12     	; 0x547e <_fpadd_parts+0x1c0>
    5472:	a6 01       	movw	r20, r12
    5474:	95 01       	movw	r18, r10
    5476:	2e 19       	sub	r18, r14
    5478:	3f 09       	sbc	r19, r15
    547a:	40 0b       	sbc	r20, r16
    547c:	51 0b       	sbc	r21, r17
    547e:	57 fd       	sbrc	r21, 7
    5480:	08 c0       	rjmp	.+16     	; 0x5492 <_fpadd_parts+0x1d4>
    5482:	11 82       	std	Z+1, r1	; 0x01
    5484:	33 82       	std	Z+3, r3	; 0x03
    5486:	22 82       	std	Z+2, r2	; 0x02
    5488:	24 83       	std	Z+4, r18	; 0x04
    548a:	35 83       	std	Z+5, r19	; 0x05
    548c:	46 83       	std	Z+6, r20	; 0x06
    548e:	57 83       	std	Z+7, r21	; 0x07
    5490:	1d c0       	rjmp	.+58     	; 0x54cc <_fpadd_parts+0x20e>
    5492:	81 e0       	ldi	r24, 0x01	; 1
    5494:	81 83       	std	Z+1, r24	; 0x01
    5496:	33 82       	std	Z+3, r3	; 0x03
    5498:	22 82       	std	Z+2, r2	; 0x02
    549a:	88 27       	eor	r24, r24
    549c:	99 27       	eor	r25, r25
    549e:	dc 01       	movw	r26, r24
    54a0:	82 1b       	sub	r24, r18
    54a2:	93 0b       	sbc	r25, r19
    54a4:	a4 0b       	sbc	r26, r20
    54a6:	b5 0b       	sbc	r27, r21
    54a8:	84 83       	std	Z+4, r24	; 0x04
    54aa:	95 83       	std	Z+5, r25	; 0x05
    54ac:	a6 83       	std	Z+6, r26	; 0x06
    54ae:	b7 83       	std	Z+7, r27	; 0x07
    54b0:	0d c0       	rjmp	.+26     	; 0x54cc <_fpadd_parts+0x20e>
    54b2:	22 0f       	add	r18, r18
    54b4:	33 1f       	adc	r19, r19
    54b6:	44 1f       	adc	r20, r20
    54b8:	55 1f       	adc	r21, r21
    54ba:	24 83       	std	Z+4, r18	; 0x04
    54bc:	35 83       	std	Z+5, r19	; 0x05
    54be:	46 83       	std	Z+6, r20	; 0x06
    54c0:	57 83       	std	Z+7, r21	; 0x07
    54c2:	82 81       	ldd	r24, Z+2	; 0x02
    54c4:	93 81       	ldd	r25, Z+3	; 0x03
    54c6:	01 97       	sbiw	r24, 0x01	; 1
    54c8:	93 83       	std	Z+3, r25	; 0x03
    54ca:	82 83       	std	Z+2, r24	; 0x02
    54cc:	24 81       	ldd	r18, Z+4	; 0x04
    54ce:	35 81       	ldd	r19, Z+5	; 0x05
    54d0:	46 81       	ldd	r20, Z+6	; 0x06
    54d2:	57 81       	ldd	r21, Z+7	; 0x07
    54d4:	da 01       	movw	r26, r20
    54d6:	c9 01       	movw	r24, r18
    54d8:	01 97       	sbiw	r24, 0x01	; 1
    54da:	a1 09       	sbc	r26, r1
    54dc:	b1 09       	sbc	r27, r1
    54de:	8f 5f       	subi	r24, 0xFF	; 255
    54e0:	9f 4f       	sbci	r25, 0xFF	; 255
    54e2:	af 4f       	sbci	r26, 0xFF	; 255
    54e4:	bf 43       	sbci	r27, 0x3F	; 63
    54e6:	28 f3       	brcs	.-54     	; 0x54b2 <_fpadd_parts+0x1f4>
    54e8:	0b c0       	rjmp	.+22     	; 0x5500 <_fpadd_parts+0x242>
    54ea:	91 83       	std	Z+1, r25	; 0x01
    54ec:	33 82       	std	Z+3, r3	; 0x03
    54ee:	22 82       	std	Z+2, r2	; 0x02
    54f0:	ea 0c       	add	r14, r10
    54f2:	fb 1c       	adc	r15, r11
    54f4:	0c 1d       	adc	r16, r12
    54f6:	1d 1d       	adc	r17, r13
    54f8:	e4 82       	std	Z+4, r14	; 0x04
    54fa:	f5 82       	std	Z+5, r15	; 0x05
    54fc:	06 83       	std	Z+6, r16	; 0x06
    54fe:	17 83       	std	Z+7, r17	; 0x07
    5500:	83 e0       	ldi	r24, 0x03	; 3
    5502:	80 83       	st	Z, r24
    5504:	24 81       	ldd	r18, Z+4	; 0x04
    5506:	35 81       	ldd	r19, Z+5	; 0x05
    5508:	46 81       	ldd	r20, Z+6	; 0x06
    550a:	57 81       	ldd	r21, Z+7	; 0x07
    550c:	57 ff       	sbrs	r21, 7
    550e:	1a c0       	rjmp	.+52     	; 0x5544 <_fpadd_parts+0x286>
    5510:	c9 01       	movw	r24, r18
    5512:	aa 27       	eor	r26, r26
    5514:	97 fd       	sbrc	r25, 7
    5516:	a0 95       	com	r26
    5518:	ba 2f       	mov	r27, r26
    551a:	81 70       	andi	r24, 0x01	; 1
    551c:	90 70       	andi	r25, 0x00	; 0
    551e:	a0 70       	andi	r26, 0x00	; 0
    5520:	b0 70       	andi	r27, 0x00	; 0
    5522:	56 95       	lsr	r21
    5524:	47 95       	ror	r20
    5526:	37 95       	ror	r19
    5528:	27 95       	ror	r18
    552a:	82 2b       	or	r24, r18
    552c:	93 2b       	or	r25, r19
    552e:	a4 2b       	or	r26, r20
    5530:	b5 2b       	or	r27, r21
    5532:	84 83       	std	Z+4, r24	; 0x04
    5534:	95 83       	std	Z+5, r25	; 0x05
    5536:	a6 83       	std	Z+6, r26	; 0x06
    5538:	b7 83       	std	Z+7, r27	; 0x07
    553a:	82 81       	ldd	r24, Z+2	; 0x02
    553c:	93 81       	ldd	r25, Z+3	; 0x03
    553e:	01 96       	adiw	r24, 0x01	; 1
    5540:	93 83       	std	Z+3, r25	; 0x03
    5542:	82 83       	std	Z+2, r24	; 0x02
    5544:	df 01       	movw	r26, r30
    5546:	01 c0       	rjmp	.+2      	; 0x554a <_fpadd_parts+0x28c>
    5548:	d2 01       	movw	r26, r4
    554a:	cd 01       	movw	r24, r26
    554c:	cd b7       	in	r28, 0x3d	; 61
    554e:	de b7       	in	r29, 0x3e	; 62
    5550:	e2 e1       	ldi	r30, 0x12	; 18
    5552:	0c 94 66 30 	jmp	0x60cc	; 0x60cc <__epilogue_restores__>

00005556 <__subsf3>:
    5556:	a0 e2       	ldi	r26, 0x20	; 32
    5558:	b0 e0       	ldi	r27, 0x00	; 0
    555a:	e1 eb       	ldi	r30, 0xB1	; 177
    555c:	fa e2       	ldi	r31, 0x2A	; 42
    555e:	0c 94 56 30 	jmp	0x60ac	; 0x60ac <__prologue_saves__+0x18>
    5562:	69 83       	std	Y+1, r22	; 0x01
    5564:	7a 83       	std	Y+2, r23	; 0x02
    5566:	8b 83       	std	Y+3, r24	; 0x03
    5568:	9c 83       	std	Y+4, r25	; 0x04
    556a:	2d 83       	std	Y+5, r18	; 0x05
    556c:	3e 83       	std	Y+6, r19	; 0x06
    556e:	4f 83       	std	Y+7, r20	; 0x07
    5570:	58 87       	std	Y+8, r21	; 0x08
    5572:	e9 e0       	ldi	r30, 0x09	; 9
    5574:	ee 2e       	mov	r14, r30
    5576:	f1 2c       	mov	r15, r1
    5578:	ec 0e       	add	r14, r28
    557a:	fd 1e       	adc	r15, r29
    557c:	ce 01       	movw	r24, r28
    557e:	01 96       	adiw	r24, 0x01	; 1
    5580:	b7 01       	movw	r22, r14
    5582:	0e 94 15 2f 	call	0x5e2a	; 0x5e2a <__unpack_f>
    5586:	8e 01       	movw	r16, r28
    5588:	0f 5e       	subi	r16, 0xEF	; 239
    558a:	1f 4f       	sbci	r17, 0xFF	; 255
    558c:	ce 01       	movw	r24, r28
    558e:	05 96       	adiw	r24, 0x05	; 5
    5590:	b8 01       	movw	r22, r16
    5592:	0e 94 15 2f 	call	0x5e2a	; 0x5e2a <__unpack_f>
    5596:	8a 89       	ldd	r24, Y+18	; 0x12
    5598:	91 e0       	ldi	r25, 0x01	; 1
    559a:	89 27       	eor	r24, r25
    559c:	8a 8b       	std	Y+18, r24	; 0x12
    559e:	c7 01       	movw	r24, r14
    55a0:	b8 01       	movw	r22, r16
    55a2:	ae 01       	movw	r20, r28
    55a4:	47 5e       	subi	r20, 0xE7	; 231
    55a6:	5f 4f       	sbci	r21, 0xFF	; 255
    55a8:	0e 94 5f 29 	call	0x52be	; 0x52be <_fpadd_parts>
    55ac:	0e 94 40 2e 	call	0x5c80	; 0x5c80 <__pack_f>
    55b0:	a0 96       	adiw	r28, 0x20	; 32
    55b2:	e6 e0       	ldi	r30, 0x06	; 6
    55b4:	0c 94 72 30 	jmp	0x60e4	; 0x60e4 <__epilogue_restores__+0x18>

000055b8 <__addsf3>:
    55b8:	a0 e2       	ldi	r26, 0x20	; 32
    55ba:	b0 e0       	ldi	r27, 0x00	; 0
    55bc:	e2 ee       	ldi	r30, 0xE2	; 226
    55be:	fa e2       	ldi	r31, 0x2A	; 42
    55c0:	0c 94 56 30 	jmp	0x60ac	; 0x60ac <__prologue_saves__+0x18>
    55c4:	69 83       	std	Y+1, r22	; 0x01
    55c6:	7a 83       	std	Y+2, r23	; 0x02
    55c8:	8b 83       	std	Y+3, r24	; 0x03
    55ca:	9c 83       	std	Y+4, r25	; 0x04
    55cc:	2d 83       	std	Y+5, r18	; 0x05
    55ce:	3e 83       	std	Y+6, r19	; 0x06
    55d0:	4f 83       	std	Y+7, r20	; 0x07
    55d2:	58 87       	std	Y+8, r21	; 0x08
    55d4:	f9 e0       	ldi	r31, 0x09	; 9
    55d6:	ef 2e       	mov	r14, r31
    55d8:	f1 2c       	mov	r15, r1
    55da:	ec 0e       	add	r14, r28
    55dc:	fd 1e       	adc	r15, r29
    55de:	ce 01       	movw	r24, r28
    55e0:	01 96       	adiw	r24, 0x01	; 1
    55e2:	b7 01       	movw	r22, r14
    55e4:	0e 94 15 2f 	call	0x5e2a	; 0x5e2a <__unpack_f>
    55e8:	8e 01       	movw	r16, r28
    55ea:	0f 5e       	subi	r16, 0xEF	; 239
    55ec:	1f 4f       	sbci	r17, 0xFF	; 255
    55ee:	ce 01       	movw	r24, r28
    55f0:	05 96       	adiw	r24, 0x05	; 5
    55f2:	b8 01       	movw	r22, r16
    55f4:	0e 94 15 2f 	call	0x5e2a	; 0x5e2a <__unpack_f>
    55f8:	c7 01       	movw	r24, r14
    55fa:	b8 01       	movw	r22, r16
    55fc:	ae 01       	movw	r20, r28
    55fe:	47 5e       	subi	r20, 0xE7	; 231
    5600:	5f 4f       	sbci	r21, 0xFF	; 255
    5602:	0e 94 5f 29 	call	0x52be	; 0x52be <_fpadd_parts>
    5606:	0e 94 40 2e 	call	0x5c80	; 0x5c80 <__pack_f>
    560a:	a0 96       	adiw	r28, 0x20	; 32
    560c:	e6 e0       	ldi	r30, 0x06	; 6
    560e:	0c 94 72 30 	jmp	0x60e4	; 0x60e4 <__epilogue_restores__+0x18>

00005612 <__mulsf3>:
    5612:	a0 e2       	ldi	r26, 0x20	; 32
    5614:	b0 e0       	ldi	r27, 0x00	; 0
    5616:	ef e0       	ldi	r30, 0x0F	; 15
    5618:	fb e2       	ldi	r31, 0x2B	; 43
    561a:	0c 94 4a 30 	jmp	0x6094	; 0x6094 <__prologue_saves__>
    561e:	69 83       	std	Y+1, r22	; 0x01
    5620:	7a 83       	std	Y+2, r23	; 0x02
    5622:	8b 83       	std	Y+3, r24	; 0x03
    5624:	9c 83       	std	Y+4, r25	; 0x04
    5626:	2d 83       	std	Y+5, r18	; 0x05
    5628:	3e 83       	std	Y+6, r19	; 0x06
    562a:	4f 83       	std	Y+7, r20	; 0x07
    562c:	58 87       	std	Y+8, r21	; 0x08
    562e:	ce 01       	movw	r24, r28
    5630:	01 96       	adiw	r24, 0x01	; 1
    5632:	be 01       	movw	r22, r28
    5634:	67 5f       	subi	r22, 0xF7	; 247
    5636:	7f 4f       	sbci	r23, 0xFF	; 255
    5638:	0e 94 15 2f 	call	0x5e2a	; 0x5e2a <__unpack_f>
    563c:	ce 01       	movw	r24, r28
    563e:	05 96       	adiw	r24, 0x05	; 5
    5640:	be 01       	movw	r22, r28
    5642:	6f 5e       	subi	r22, 0xEF	; 239
    5644:	7f 4f       	sbci	r23, 0xFF	; 255
    5646:	0e 94 15 2f 	call	0x5e2a	; 0x5e2a <__unpack_f>
    564a:	99 85       	ldd	r25, Y+9	; 0x09
    564c:	92 30       	cpi	r25, 0x02	; 2
    564e:	88 f0       	brcs	.+34     	; 0x5672 <__mulsf3+0x60>
    5650:	89 89       	ldd	r24, Y+17	; 0x11
    5652:	82 30       	cpi	r24, 0x02	; 2
    5654:	c8 f0       	brcs	.+50     	; 0x5688 <__mulsf3+0x76>
    5656:	94 30       	cpi	r25, 0x04	; 4
    5658:	19 f4       	brne	.+6      	; 0x5660 <__mulsf3+0x4e>
    565a:	82 30       	cpi	r24, 0x02	; 2
    565c:	51 f4       	brne	.+20     	; 0x5672 <__mulsf3+0x60>
    565e:	04 c0       	rjmp	.+8      	; 0x5668 <__mulsf3+0x56>
    5660:	84 30       	cpi	r24, 0x04	; 4
    5662:	29 f4       	brne	.+10     	; 0x566e <__mulsf3+0x5c>
    5664:	92 30       	cpi	r25, 0x02	; 2
    5666:	81 f4       	brne	.+32     	; 0x5688 <__mulsf3+0x76>
    5668:	84 e9       	ldi	r24, 0x94	; 148
    566a:	91 e0       	ldi	r25, 0x01	; 1
    566c:	c6 c0       	rjmp	.+396    	; 0x57fa <__mulsf3+0x1e8>
    566e:	92 30       	cpi	r25, 0x02	; 2
    5670:	49 f4       	brne	.+18     	; 0x5684 <__mulsf3+0x72>
    5672:	20 e0       	ldi	r18, 0x00	; 0
    5674:	9a 85       	ldd	r25, Y+10	; 0x0a
    5676:	8a 89       	ldd	r24, Y+18	; 0x12
    5678:	98 13       	cpse	r25, r24
    567a:	21 e0       	ldi	r18, 0x01	; 1
    567c:	2a 87       	std	Y+10, r18	; 0x0a
    567e:	ce 01       	movw	r24, r28
    5680:	09 96       	adiw	r24, 0x09	; 9
    5682:	bb c0       	rjmp	.+374    	; 0x57fa <__mulsf3+0x1e8>
    5684:	82 30       	cpi	r24, 0x02	; 2
    5686:	49 f4       	brne	.+18     	; 0x569a <__mulsf3+0x88>
    5688:	20 e0       	ldi	r18, 0x00	; 0
    568a:	9a 85       	ldd	r25, Y+10	; 0x0a
    568c:	8a 89       	ldd	r24, Y+18	; 0x12
    568e:	98 13       	cpse	r25, r24
    5690:	21 e0       	ldi	r18, 0x01	; 1
    5692:	2a 8b       	std	Y+18, r18	; 0x12
    5694:	ce 01       	movw	r24, r28
    5696:	41 96       	adiw	r24, 0x11	; 17
    5698:	b0 c0       	rjmp	.+352    	; 0x57fa <__mulsf3+0x1e8>
    569a:	2d 84       	ldd	r2, Y+13	; 0x0d
    569c:	3e 84       	ldd	r3, Y+14	; 0x0e
    569e:	4f 84       	ldd	r4, Y+15	; 0x0f
    56a0:	58 88       	ldd	r5, Y+16	; 0x10
    56a2:	6d 88       	ldd	r6, Y+21	; 0x15
    56a4:	7e 88       	ldd	r7, Y+22	; 0x16
    56a6:	8f 88       	ldd	r8, Y+23	; 0x17
    56a8:	98 8c       	ldd	r9, Y+24	; 0x18
    56aa:	ee 24       	eor	r14, r14
    56ac:	ff 24       	eor	r15, r15
    56ae:	87 01       	movw	r16, r14
    56b0:	aa 24       	eor	r10, r10
    56b2:	bb 24       	eor	r11, r11
    56b4:	65 01       	movw	r12, r10
    56b6:	40 e0       	ldi	r20, 0x00	; 0
    56b8:	50 e0       	ldi	r21, 0x00	; 0
    56ba:	60 e0       	ldi	r22, 0x00	; 0
    56bc:	70 e0       	ldi	r23, 0x00	; 0
    56be:	e0 e0       	ldi	r30, 0x00	; 0
    56c0:	f0 e0       	ldi	r31, 0x00	; 0
    56c2:	c1 01       	movw	r24, r2
    56c4:	81 70       	andi	r24, 0x01	; 1
    56c6:	90 70       	andi	r25, 0x00	; 0
    56c8:	89 2b       	or	r24, r25
    56ca:	e9 f0       	breq	.+58     	; 0x5706 <__mulsf3+0xf4>
    56cc:	e6 0c       	add	r14, r6
    56ce:	f7 1c       	adc	r15, r7
    56d0:	08 1d       	adc	r16, r8
    56d2:	19 1d       	adc	r17, r9
    56d4:	9a 01       	movw	r18, r20
    56d6:	ab 01       	movw	r20, r22
    56d8:	2a 0d       	add	r18, r10
    56da:	3b 1d       	adc	r19, r11
    56dc:	4c 1d       	adc	r20, r12
    56de:	5d 1d       	adc	r21, r13
    56e0:	80 e0       	ldi	r24, 0x00	; 0
    56e2:	90 e0       	ldi	r25, 0x00	; 0
    56e4:	a0 e0       	ldi	r26, 0x00	; 0
    56e6:	b0 e0       	ldi	r27, 0x00	; 0
    56e8:	e6 14       	cp	r14, r6
    56ea:	f7 04       	cpc	r15, r7
    56ec:	08 05       	cpc	r16, r8
    56ee:	19 05       	cpc	r17, r9
    56f0:	20 f4       	brcc	.+8      	; 0x56fa <__mulsf3+0xe8>
    56f2:	81 e0       	ldi	r24, 0x01	; 1
    56f4:	90 e0       	ldi	r25, 0x00	; 0
    56f6:	a0 e0       	ldi	r26, 0x00	; 0
    56f8:	b0 e0       	ldi	r27, 0x00	; 0
    56fa:	ba 01       	movw	r22, r20
    56fc:	a9 01       	movw	r20, r18
    56fe:	48 0f       	add	r20, r24
    5700:	59 1f       	adc	r21, r25
    5702:	6a 1f       	adc	r22, r26
    5704:	7b 1f       	adc	r23, r27
    5706:	aa 0c       	add	r10, r10
    5708:	bb 1c       	adc	r11, r11
    570a:	cc 1c       	adc	r12, r12
    570c:	dd 1c       	adc	r13, r13
    570e:	97 fe       	sbrs	r9, 7
    5710:	08 c0       	rjmp	.+16     	; 0x5722 <__mulsf3+0x110>
    5712:	81 e0       	ldi	r24, 0x01	; 1
    5714:	90 e0       	ldi	r25, 0x00	; 0
    5716:	a0 e0       	ldi	r26, 0x00	; 0
    5718:	b0 e0       	ldi	r27, 0x00	; 0
    571a:	a8 2a       	or	r10, r24
    571c:	b9 2a       	or	r11, r25
    571e:	ca 2a       	or	r12, r26
    5720:	db 2a       	or	r13, r27
    5722:	31 96       	adiw	r30, 0x01	; 1
    5724:	e0 32       	cpi	r30, 0x20	; 32
    5726:	f1 05       	cpc	r31, r1
    5728:	49 f0       	breq	.+18     	; 0x573c <__mulsf3+0x12a>
    572a:	66 0c       	add	r6, r6
    572c:	77 1c       	adc	r7, r7
    572e:	88 1c       	adc	r8, r8
    5730:	99 1c       	adc	r9, r9
    5732:	56 94       	lsr	r5
    5734:	47 94       	ror	r4
    5736:	37 94       	ror	r3
    5738:	27 94       	ror	r2
    573a:	c3 cf       	rjmp	.-122    	; 0x56c2 <__mulsf3+0xb0>
    573c:	fa 85       	ldd	r31, Y+10	; 0x0a
    573e:	ea 89       	ldd	r30, Y+18	; 0x12
    5740:	2b 89       	ldd	r18, Y+19	; 0x13
    5742:	3c 89       	ldd	r19, Y+20	; 0x14
    5744:	8b 85       	ldd	r24, Y+11	; 0x0b
    5746:	9c 85       	ldd	r25, Y+12	; 0x0c
    5748:	28 0f       	add	r18, r24
    574a:	39 1f       	adc	r19, r25
    574c:	2e 5f       	subi	r18, 0xFE	; 254
    574e:	3f 4f       	sbci	r19, 0xFF	; 255
    5750:	17 c0       	rjmp	.+46     	; 0x5780 <__mulsf3+0x16e>
    5752:	ca 01       	movw	r24, r20
    5754:	81 70       	andi	r24, 0x01	; 1
    5756:	90 70       	andi	r25, 0x00	; 0
    5758:	89 2b       	or	r24, r25
    575a:	61 f0       	breq	.+24     	; 0x5774 <__mulsf3+0x162>
    575c:	16 95       	lsr	r17
    575e:	07 95       	ror	r16
    5760:	f7 94       	ror	r15
    5762:	e7 94       	ror	r14
    5764:	80 e0       	ldi	r24, 0x00	; 0
    5766:	90 e0       	ldi	r25, 0x00	; 0
    5768:	a0 e0       	ldi	r26, 0x00	; 0
    576a:	b0 e8       	ldi	r27, 0x80	; 128
    576c:	e8 2a       	or	r14, r24
    576e:	f9 2a       	or	r15, r25
    5770:	0a 2b       	or	r16, r26
    5772:	1b 2b       	or	r17, r27
    5774:	76 95       	lsr	r23
    5776:	67 95       	ror	r22
    5778:	57 95       	ror	r21
    577a:	47 95       	ror	r20
    577c:	2f 5f       	subi	r18, 0xFF	; 255
    577e:	3f 4f       	sbci	r19, 0xFF	; 255
    5780:	77 fd       	sbrc	r23, 7
    5782:	e7 cf       	rjmp	.-50     	; 0x5752 <__mulsf3+0x140>
    5784:	0c c0       	rjmp	.+24     	; 0x579e <__mulsf3+0x18c>
    5786:	44 0f       	add	r20, r20
    5788:	55 1f       	adc	r21, r21
    578a:	66 1f       	adc	r22, r22
    578c:	77 1f       	adc	r23, r23
    578e:	17 fd       	sbrc	r17, 7
    5790:	41 60       	ori	r20, 0x01	; 1
    5792:	ee 0c       	add	r14, r14
    5794:	ff 1c       	adc	r15, r15
    5796:	00 1f       	adc	r16, r16
    5798:	11 1f       	adc	r17, r17
    579a:	21 50       	subi	r18, 0x01	; 1
    579c:	30 40       	sbci	r19, 0x00	; 0
    579e:	40 30       	cpi	r20, 0x00	; 0
    57a0:	90 e0       	ldi	r25, 0x00	; 0
    57a2:	59 07       	cpc	r21, r25
    57a4:	90 e0       	ldi	r25, 0x00	; 0
    57a6:	69 07       	cpc	r22, r25
    57a8:	90 e4       	ldi	r25, 0x40	; 64
    57aa:	79 07       	cpc	r23, r25
    57ac:	60 f3       	brcs	.-40     	; 0x5786 <__mulsf3+0x174>
    57ae:	2b 8f       	std	Y+27, r18	; 0x1b
    57b0:	3c 8f       	std	Y+28, r19	; 0x1c
    57b2:	db 01       	movw	r26, r22
    57b4:	ca 01       	movw	r24, r20
    57b6:	8f 77       	andi	r24, 0x7F	; 127
    57b8:	90 70       	andi	r25, 0x00	; 0
    57ba:	a0 70       	andi	r26, 0x00	; 0
    57bc:	b0 70       	andi	r27, 0x00	; 0
    57be:	80 34       	cpi	r24, 0x40	; 64
    57c0:	91 05       	cpc	r25, r1
    57c2:	a1 05       	cpc	r26, r1
    57c4:	b1 05       	cpc	r27, r1
    57c6:	61 f4       	brne	.+24     	; 0x57e0 <__mulsf3+0x1ce>
    57c8:	47 fd       	sbrc	r20, 7
    57ca:	0a c0       	rjmp	.+20     	; 0x57e0 <__mulsf3+0x1ce>
    57cc:	e1 14       	cp	r14, r1
    57ce:	f1 04       	cpc	r15, r1
    57d0:	01 05       	cpc	r16, r1
    57d2:	11 05       	cpc	r17, r1
    57d4:	29 f0       	breq	.+10     	; 0x57e0 <__mulsf3+0x1ce>
    57d6:	40 5c       	subi	r20, 0xC0	; 192
    57d8:	5f 4f       	sbci	r21, 0xFF	; 255
    57da:	6f 4f       	sbci	r22, 0xFF	; 255
    57dc:	7f 4f       	sbci	r23, 0xFF	; 255
    57de:	40 78       	andi	r20, 0x80	; 128
    57e0:	1a 8e       	std	Y+26, r1	; 0x1a
    57e2:	fe 17       	cp	r31, r30
    57e4:	11 f0       	breq	.+4      	; 0x57ea <__mulsf3+0x1d8>
    57e6:	81 e0       	ldi	r24, 0x01	; 1
    57e8:	8a 8f       	std	Y+26, r24	; 0x1a
    57ea:	4d 8f       	std	Y+29, r20	; 0x1d
    57ec:	5e 8f       	std	Y+30, r21	; 0x1e
    57ee:	6f 8f       	std	Y+31, r22	; 0x1f
    57f0:	78 a3       	std	Y+32, r23	; 0x20
    57f2:	83 e0       	ldi	r24, 0x03	; 3
    57f4:	89 8f       	std	Y+25, r24	; 0x19
    57f6:	ce 01       	movw	r24, r28
    57f8:	49 96       	adiw	r24, 0x19	; 25
    57fa:	0e 94 40 2e 	call	0x5c80	; 0x5c80 <__pack_f>
    57fe:	a0 96       	adiw	r28, 0x20	; 32
    5800:	e2 e1       	ldi	r30, 0x12	; 18
    5802:	0c 94 66 30 	jmp	0x60cc	; 0x60cc <__epilogue_restores__>

00005806 <__divsf3>:
    5806:	a8 e1       	ldi	r26, 0x18	; 24
    5808:	b0 e0       	ldi	r27, 0x00	; 0
    580a:	e9 e0       	ldi	r30, 0x09	; 9
    580c:	fc e2       	ldi	r31, 0x2C	; 44
    580e:	0c 94 52 30 	jmp	0x60a4	; 0x60a4 <__prologue_saves__+0x10>
    5812:	69 83       	std	Y+1, r22	; 0x01
    5814:	7a 83       	std	Y+2, r23	; 0x02
    5816:	8b 83       	std	Y+3, r24	; 0x03
    5818:	9c 83       	std	Y+4, r25	; 0x04
    581a:	2d 83       	std	Y+5, r18	; 0x05
    581c:	3e 83       	std	Y+6, r19	; 0x06
    581e:	4f 83       	std	Y+7, r20	; 0x07
    5820:	58 87       	std	Y+8, r21	; 0x08
    5822:	b9 e0       	ldi	r27, 0x09	; 9
    5824:	eb 2e       	mov	r14, r27
    5826:	f1 2c       	mov	r15, r1
    5828:	ec 0e       	add	r14, r28
    582a:	fd 1e       	adc	r15, r29
    582c:	ce 01       	movw	r24, r28
    582e:	01 96       	adiw	r24, 0x01	; 1
    5830:	b7 01       	movw	r22, r14
    5832:	0e 94 15 2f 	call	0x5e2a	; 0x5e2a <__unpack_f>
    5836:	8e 01       	movw	r16, r28
    5838:	0f 5e       	subi	r16, 0xEF	; 239
    583a:	1f 4f       	sbci	r17, 0xFF	; 255
    583c:	ce 01       	movw	r24, r28
    583e:	05 96       	adiw	r24, 0x05	; 5
    5840:	b8 01       	movw	r22, r16
    5842:	0e 94 15 2f 	call	0x5e2a	; 0x5e2a <__unpack_f>
    5846:	29 85       	ldd	r18, Y+9	; 0x09
    5848:	22 30       	cpi	r18, 0x02	; 2
    584a:	08 f4       	brcc	.+2      	; 0x584e <__divsf3+0x48>
    584c:	7e c0       	rjmp	.+252    	; 0x594a <__divsf3+0x144>
    584e:	39 89       	ldd	r19, Y+17	; 0x11
    5850:	32 30       	cpi	r19, 0x02	; 2
    5852:	10 f4       	brcc	.+4      	; 0x5858 <__divsf3+0x52>
    5854:	b8 01       	movw	r22, r16
    5856:	7c c0       	rjmp	.+248    	; 0x5950 <__divsf3+0x14a>
    5858:	8a 85       	ldd	r24, Y+10	; 0x0a
    585a:	9a 89       	ldd	r25, Y+18	; 0x12
    585c:	89 27       	eor	r24, r25
    585e:	8a 87       	std	Y+10, r24	; 0x0a
    5860:	24 30       	cpi	r18, 0x04	; 4
    5862:	11 f0       	breq	.+4      	; 0x5868 <__divsf3+0x62>
    5864:	22 30       	cpi	r18, 0x02	; 2
    5866:	31 f4       	brne	.+12     	; 0x5874 <__divsf3+0x6e>
    5868:	23 17       	cp	r18, r19
    586a:	09 f0       	breq	.+2      	; 0x586e <__divsf3+0x68>
    586c:	6e c0       	rjmp	.+220    	; 0x594a <__divsf3+0x144>
    586e:	64 e9       	ldi	r22, 0x94	; 148
    5870:	71 e0       	ldi	r23, 0x01	; 1
    5872:	6e c0       	rjmp	.+220    	; 0x5950 <__divsf3+0x14a>
    5874:	34 30       	cpi	r19, 0x04	; 4
    5876:	39 f4       	brne	.+14     	; 0x5886 <__divsf3+0x80>
    5878:	1d 86       	std	Y+13, r1	; 0x0d
    587a:	1e 86       	std	Y+14, r1	; 0x0e
    587c:	1f 86       	std	Y+15, r1	; 0x0f
    587e:	18 8a       	std	Y+16, r1	; 0x10
    5880:	1c 86       	std	Y+12, r1	; 0x0c
    5882:	1b 86       	std	Y+11, r1	; 0x0b
    5884:	04 c0       	rjmp	.+8      	; 0x588e <__divsf3+0x88>
    5886:	32 30       	cpi	r19, 0x02	; 2
    5888:	21 f4       	brne	.+8      	; 0x5892 <__divsf3+0x8c>
    588a:	84 e0       	ldi	r24, 0x04	; 4
    588c:	89 87       	std	Y+9, r24	; 0x09
    588e:	b7 01       	movw	r22, r14
    5890:	5f c0       	rjmp	.+190    	; 0x5950 <__divsf3+0x14a>
    5892:	2b 85       	ldd	r18, Y+11	; 0x0b
    5894:	3c 85       	ldd	r19, Y+12	; 0x0c
    5896:	8b 89       	ldd	r24, Y+19	; 0x13
    5898:	9c 89       	ldd	r25, Y+20	; 0x14
    589a:	28 1b       	sub	r18, r24
    589c:	39 0b       	sbc	r19, r25
    589e:	3c 87       	std	Y+12, r19	; 0x0c
    58a0:	2b 87       	std	Y+11, r18	; 0x0b
    58a2:	ed 84       	ldd	r14, Y+13	; 0x0d
    58a4:	fe 84       	ldd	r15, Y+14	; 0x0e
    58a6:	0f 85       	ldd	r16, Y+15	; 0x0f
    58a8:	18 89       	ldd	r17, Y+16	; 0x10
    58aa:	ad 88       	ldd	r10, Y+21	; 0x15
    58ac:	be 88       	ldd	r11, Y+22	; 0x16
    58ae:	cf 88       	ldd	r12, Y+23	; 0x17
    58b0:	d8 8c       	ldd	r13, Y+24	; 0x18
    58b2:	ea 14       	cp	r14, r10
    58b4:	fb 04       	cpc	r15, r11
    58b6:	0c 05       	cpc	r16, r12
    58b8:	1d 05       	cpc	r17, r13
    58ba:	40 f4       	brcc	.+16     	; 0x58cc <__divsf3+0xc6>
    58bc:	ee 0c       	add	r14, r14
    58be:	ff 1c       	adc	r15, r15
    58c0:	00 1f       	adc	r16, r16
    58c2:	11 1f       	adc	r17, r17
    58c4:	21 50       	subi	r18, 0x01	; 1
    58c6:	30 40       	sbci	r19, 0x00	; 0
    58c8:	3c 87       	std	Y+12, r19	; 0x0c
    58ca:	2b 87       	std	Y+11, r18	; 0x0b
    58cc:	20 e0       	ldi	r18, 0x00	; 0
    58ce:	30 e0       	ldi	r19, 0x00	; 0
    58d0:	40 e0       	ldi	r20, 0x00	; 0
    58d2:	50 e0       	ldi	r21, 0x00	; 0
    58d4:	80 e0       	ldi	r24, 0x00	; 0
    58d6:	90 e0       	ldi	r25, 0x00	; 0
    58d8:	a0 e0       	ldi	r26, 0x00	; 0
    58da:	b0 e4       	ldi	r27, 0x40	; 64
    58dc:	60 e0       	ldi	r22, 0x00	; 0
    58de:	70 e0       	ldi	r23, 0x00	; 0
    58e0:	ea 14       	cp	r14, r10
    58e2:	fb 04       	cpc	r15, r11
    58e4:	0c 05       	cpc	r16, r12
    58e6:	1d 05       	cpc	r17, r13
    58e8:	40 f0       	brcs	.+16     	; 0x58fa <__divsf3+0xf4>
    58ea:	28 2b       	or	r18, r24
    58ec:	39 2b       	or	r19, r25
    58ee:	4a 2b       	or	r20, r26
    58f0:	5b 2b       	or	r21, r27
    58f2:	ea 18       	sub	r14, r10
    58f4:	fb 08       	sbc	r15, r11
    58f6:	0c 09       	sbc	r16, r12
    58f8:	1d 09       	sbc	r17, r13
    58fa:	b6 95       	lsr	r27
    58fc:	a7 95       	ror	r26
    58fe:	97 95       	ror	r25
    5900:	87 95       	ror	r24
    5902:	ee 0c       	add	r14, r14
    5904:	ff 1c       	adc	r15, r15
    5906:	00 1f       	adc	r16, r16
    5908:	11 1f       	adc	r17, r17
    590a:	6f 5f       	subi	r22, 0xFF	; 255
    590c:	7f 4f       	sbci	r23, 0xFF	; 255
    590e:	6f 31       	cpi	r22, 0x1F	; 31
    5910:	71 05       	cpc	r23, r1
    5912:	31 f7       	brne	.-52     	; 0x58e0 <__divsf3+0xda>
    5914:	da 01       	movw	r26, r20
    5916:	c9 01       	movw	r24, r18
    5918:	8f 77       	andi	r24, 0x7F	; 127
    591a:	90 70       	andi	r25, 0x00	; 0
    591c:	a0 70       	andi	r26, 0x00	; 0
    591e:	b0 70       	andi	r27, 0x00	; 0
    5920:	80 34       	cpi	r24, 0x40	; 64
    5922:	91 05       	cpc	r25, r1
    5924:	a1 05       	cpc	r26, r1
    5926:	b1 05       	cpc	r27, r1
    5928:	61 f4       	brne	.+24     	; 0x5942 <__divsf3+0x13c>
    592a:	27 fd       	sbrc	r18, 7
    592c:	0a c0       	rjmp	.+20     	; 0x5942 <__divsf3+0x13c>
    592e:	e1 14       	cp	r14, r1
    5930:	f1 04       	cpc	r15, r1
    5932:	01 05       	cpc	r16, r1
    5934:	11 05       	cpc	r17, r1
    5936:	29 f0       	breq	.+10     	; 0x5942 <__divsf3+0x13c>
    5938:	20 5c       	subi	r18, 0xC0	; 192
    593a:	3f 4f       	sbci	r19, 0xFF	; 255
    593c:	4f 4f       	sbci	r20, 0xFF	; 255
    593e:	5f 4f       	sbci	r21, 0xFF	; 255
    5940:	20 78       	andi	r18, 0x80	; 128
    5942:	2d 87       	std	Y+13, r18	; 0x0d
    5944:	3e 87       	std	Y+14, r19	; 0x0e
    5946:	4f 87       	std	Y+15, r20	; 0x0f
    5948:	58 8b       	std	Y+16, r21	; 0x10
    594a:	be 01       	movw	r22, r28
    594c:	67 5f       	subi	r22, 0xF7	; 247
    594e:	7f 4f       	sbci	r23, 0xFF	; 255
    5950:	cb 01       	movw	r24, r22
    5952:	0e 94 40 2e 	call	0x5c80	; 0x5c80 <__pack_f>
    5956:	68 96       	adiw	r28, 0x18	; 24
    5958:	ea e0       	ldi	r30, 0x0A	; 10
    595a:	0c 94 6e 30 	jmp	0x60dc	; 0x60dc <__epilogue_restores__+0x10>

0000595e <__gtsf2>:
    595e:	a8 e1       	ldi	r26, 0x18	; 24
    5960:	b0 e0       	ldi	r27, 0x00	; 0
    5962:	e5 eb       	ldi	r30, 0xB5	; 181
    5964:	fc e2       	ldi	r31, 0x2C	; 44
    5966:	0c 94 56 30 	jmp	0x60ac	; 0x60ac <__prologue_saves__+0x18>
    596a:	69 83       	std	Y+1, r22	; 0x01
    596c:	7a 83       	std	Y+2, r23	; 0x02
    596e:	8b 83       	std	Y+3, r24	; 0x03
    5970:	9c 83       	std	Y+4, r25	; 0x04
    5972:	2d 83       	std	Y+5, r18	; 0x05
    5974:	3e 83       	std	Y+6, r19	; 0x06
    5976:	4f 83       	std	Y+7, r20	; 0x07
    5978:	58 87       	std	Y+8, r21	; 0x08
    597a:	89 e0       	ldi	r24, 0x09	; 9
    597c:	e8 2e       	mov	r14, r24
    597e:	f1 2c       	mov	r15, r1
    5980:	ec 0e       	add	r14, r28
    5982:	fd 1e       	adc	r15, r29
    5984:	ce 01       	movw	r24, r28
    5986:	01 96       	adiw	r24, 0x01	; 1
    5988:	b7 01       	movw	r22, r14
    598a:	0e 94 15 2f 	call	0x5e2a	; 0x5e2a <__unpack_f>
    598e:	8e 01       	movw	r16, r28
    5990:	0f 5e       	subi	r16, 0xEF	; 239
    5992:	1f 4f       	sbci	r17, 0xFF	; 255
    5994:	ce 01       	movw	r24, r28
    5996:	05 96       	adiw	r24, 0x05	; 5
    5998:	b8 01       	movw	r22, r16
    599a:	0e 94 15 2f 	call	0x5e2a	; 0x5e2a <__unpack_f>
    599e:	89 85       	ldd	r24, Y+9	; 0x09
    59a0:	82 30       	cpi	r24, 0x02	; 2
    59a2:	40 f0       	brcs	.+16     	; 0x59b4 <__gtsf2+0x56>
    59a4:	89 89       	ldd	r24, Y+17	; 0x11
    59a6:	82 30       	cpi	r24, 0x02	; 2
    59a8:	28 f0       	brcs	.+10     	; 0x59b4 <__gtsf2+0x56>
    59aa:	c7 01       	movw	r24, r14
    59ac:	b8 01       	movw	r22, r16
    59ae:	0e 94 8d 2f 	call	0x5f1a	; 0x5f1a <__fpcmp_parts_f>
    59b2:	01 c0       	rjmp	.+2      	; 0x59b6 <__gtsf2+0x58>
    59b4:	8f ef       	ldi	r24, 0xFF	; 255
    59b6:	68 96       	adiw	r28, 0x18	; 24
    59b8:	e6 e0       	ldi	r30, 0x06	; 6
    59ba:	0c 94 72 30 	jmp	0x60e4	; 0x60e4 <__epilogue_restores__+0x18>

000059be <__gesf2>:
    59be:	a8 e1       	ldi	r26, 0x18	; 24
    59c0:	b0 e0       	ldi	r27, 0x00	; 0
    59c2:	e5 ee       	ldi	r30, 0xE5	; 229
    59c4:	fc e2       	ldi	r31, 0x2C	; 44
    59c6:	0c 94 56 30 	jmp	0x60ac	; 0x60ac <__prologue_saves__+0x18>
    59ca:	69 83       	std	Y+1, r22	; 0x01
    59cc:	7a 83       	std	Y+2, r23	; 0x02
    59ce:	8b 83       	std	Y+3, r24	; 0x03
    59d0:	9c 83       	std	Y+4, r25	; 0x04
    59d2:	2d 83       	std	Y+5, r18	; 0x05
    59d4:	3e 83       	std	Y+6, r19	; 0x06
    59d6:	4f 83       	std	Y+7, r20	; 0x07
    59d8:	58 87       	std	Y+8, r21	; 0x08
    59da:	89 e0       	ldi	r24, 0x09	; 9
    59dc:	e8 2e       	mov	r14, r24
    59de:	f1 2c       	mov	r15, r1
    59e0:	ec 0e       	add	r14, r28
    59e2:	fd 1e       	adc	r15, r29
    59e4:	ce 01       	movw	r24, r28
    59e6:	01 96       	adiw	r24, 0x01	; 1
    59e8:	b7 01       	movw	r22, r14
    59ea:	0e 94 15 2f 	call	0x5e2a	; 0x5e2a <__unpack_f>
    59ee:	8e 01       	movw	r16, r28
    59f0:	0f 5e       	subi	r16, 0xEF	; 239
    59f2:	1f 4f       	sbci	r17, 0xFF	; 255
    59f4:	ce 01       	movw	r24, r28
    59f6:	05 96       	adiw	r24, 0x05	; 5
    59f8:	b8 01       	movw	r22, r16
    59fa:	0e 94 15 2f 	call	0x5e2a	; 0x5e2a <__unpack_f>
    59fe:	89 85       	ldd	r24, Y+9	; 0x09
    5a00:	82 30       	cpi	r24, 0x02	; 2
    5a02:	40 f0       	brcs	.+16     	; 0x5a14 <__gesf2+0x56>
    5a04:	89 89       	ldd	r24, Y+17	; 0x11
    5a06:	82 30       	cpi	r24, 0x02	; 2
    5a08:	28 f0       	brcs	.+10     	; 0x5a14 <__gesf2+0x56>
    5a0a:	c7 01       	movw	r24, r14
    5a0c:	b8 01       	movw	r22, r16
    5a0e:	0e 94 8d 2f 	call	0x5f1a	; 0x5f1a <__fpcmp_parts_f>
    5a12:	01 c0       	rjmp	.+2      	; 0x5a16 <__gesf2+0x58>
    5a14:	8f ef       	ldi	r24, 0xFF	; 255
    5a16:	68 96       	adiw	r28, 0x18	; 24
    5a18:	e6 e0       	ldi	r30, 0x06	; 6
    5a1a:	0c 94 72 30 	jmp	0x60e4	; 0x60e4 <__epilogue_restores__+0x18>

00005a1e <__ltsf2>:
    5a1e:	a8 e1       	ldi	r26, 0x18	; 24
    5a20:	b0 e0       	ldi	r27, 0x00	; 0
    5a22:	e5 e1       	ldi	r30, 0x15	; 21
    5a24:	fd e2       	ldi	r31, 0x2D	; 45
    5a26:	0c 94 56 30 	jmp	0x60ac	; 0x60ac <__prologue_saves__+0x18>
    5a2a:	69 83       	std	Y+1, r22	; 0x01
    5a2c:	7a 83       	std	Y+2, r23	; 0x02
    5a2e:	8b 83       	std	Y+3, r24	; 0x03
    5a30:	9c 83       	std	Y+4, r25	; 0x04
    5a32:	2d 83       	std	Y+5, r18	; 0x05
    5a34:	3e 83       	std	Y+6, r19	; 0x06
    5a36:	4f 83       	std	Y+7, r20	; 0x07
    5a38:	58 87       	std	Y+8, r21	; 0x08
    5a3a:	89 e0       	ldi	r24, 0x09	; 9
    5a3c:	e8 2e       	mov	r14, r24
    5a3e:	f1 2c       	mov	r15, r1
    5a40:	ec 0e       	add	r14, r28
    5a42:	fd 1e       	adc	r15, r29
    5a44:	ce 01       	movw	r24, r28
    5a46:	01 96       	adiw	r24, 0x01	; 1
    5a48:	b7 01       	movw	r22, r14
    5a4a:	0e 94 15 2f 	call	0x5e2a	; 0x5e2a <__unpack_f>
    5a4e:	8e 01       	movw	r16, r28
    5a50:	0f 5e       	subi	r16, 0xEF	; 239
    5a52:	1f 4f       	sbci	r17, 0xFF	; 255
    5a54:	ce 01       	movw	r24, r28
    5a56:	05 96       	adiw	r24, 0x05	; 5
    5a58:	b8 01       	movw	r22, r16
    5a5a:	0e 94 15 2f 	call	0x5e2a	; 0x5e2a <__unpack_f>
    5a5e:	89 85       	ldd	r24, Y+9	; 0x09
    5a60:	82 30       	cpi	r24, 0x02	; 2
    5a62:	40 f0       	brcs	.+16     	; 0x5a74 <__ltsf2+0x56>
    5a64:	89 89       	ldd	r24, Y+17	; 0x11
    5a66:	82 30       	cpi	r24, 0x02	; 2
    5a68:	28 f0       	brcs	.+10     	; 0x5a74 <__ltsf2+0x56>
    5a6a:	c7 01       	movw	r24, r14
    5a6c:	b8 01       	movw	r22, r16
    5a6e:	0e 94 8d 2f 	call	0x5f1a	; 0x5f1a <__fpcmp_parts_f>
    5a72:	01 c0       	rjmp	.+2      	; 0x5a76 <__ltsf2+0x58>
    5a74:	81 e0       	ldi	r24, 0x01	; 1
    5a76:	68 96       	adiw	r28, 0x18	; 24
    5a78:	e6 e0       	ldi	r30, 0x06	; 6
    5a7a:	0c 94 72 30 	jmp	0x60e4	; 0x60e4 <__epilogue_restores__+0x18>

00005a7e <__floatsisf>:
    5a7e:	a8 e0       	ldi	r26, 0x08	; 8
    5a80:	b0 e0       	ldi	r27, 0x00	; 0
    5a82:	e5 e4       	ldi	r30, 0x45	; 69
    5a84:	fd e2       	ldi	r31, 0x2D	; 45
    5a86:	0c 94 53 30 	jmp	0x60a6	; 0x60a6 <__prologue_saves__+0x12>
    5a8a:	9b 01       	movw	r18, r22
    5a8c:	ac 01       	movw	r20, r24
    5a8e:	83 e0       	ldi	r24, 0x03	; 3
    5a90:	89 83       	std	Y+1, r24	; 0x01
    5a92:	da 01       	movw	r26, r20
    5a94:	c9 01       	movw	r24, r18
    5a96:	88 27       	eor	r24, r24
    5a98:	b7 fd       	sbrc	r27, 7
    5a9a:	83 95       	inc	r24
    5a9c:	99 27       	eor	r25, r25
    5a9e:	aa 27       	eor	r26, r26
    5aa0:	bb 27       	eor	r27, r27
    5aa2:	b8 2e       	mov	r11, r24
    5aa4:	21 15       	cp	r18, r1
    5aa6:	31 05       	cpc	r19, r1
    5aa8:	41 05       	cpc	r20, r1
    5aaa:	51 05       	cpc	r21, r1
    5aac:	19 f4       	brne	.+6      	; 0x5ab4 <__floatsisf+0x36>
    5aae:	82 e0       	ldi	r24, 0x02	; 2
    5ab0:	89 83       	std	Y+1, r24	; 0x01
    5ab2:	3a c0       	rjmp	.+116    	; 0x5b28 <__floatsisf+0xaa>
    5ab4:	88 23       	and	r24, r24
    5ab6:	a9 f0       	breq	.+42     	; 0x5ae2 <__floatsisf+0x64>
    5ab8:	20 30       	cpi	r18, 0x00	; 0
    5aba:	80 e0       	ldi	r24, 0x00	; 0
    5abc:	38 07       	cpc	r19, r24
    5abe:	80 e0       	ldi	r24, 0x00	; 0
    5ac0:	48 07       	cpc	r20, r24
    5ac2:	80 e8       	ldi	r24, 0x80	; 128
    5ac4:	58 07       	cpc	r21, r24
    5ac6:	29 f4       	brne	.+10     	; 0x5ad2 <__floatsisf+0x54>
    5ac8:	60 e0       	ldi	r22, 0x00	; 0
    5aca:	70 e0       	ldi	r23, 0x00	; 0
    5acc:	80 e0       	ldi	r24, 0x00	; 0
    5ace:	9f ec       	ldi	r25, 0xCF	; 207
    5ad0:	30 c0       	rjmp	.+96     	; 0x5b32 <__floatsisf+0xb4>
    5ad2:	ee 24       	eor	r14, r14
    5ad4:	ff 24       	eor	r15, r15
    5ad6:	87 01       	movw	r16, r14
    5ad8:	e2 1a       	sub	r14, r18
    5ada:	f3 0a       	sbc	r15, r19
    5adc:	04 0b       	sbc	r16, r20
    5ade:	15 0b       	sbc	r17, r21
    5ae0:	02 c0       	rjmp	.+4      	; 0x5ae6 <__floatsisf+0x68>
    5ae2:	79 01       	movw	r14, r18
    5ae4:	8a 01       	movw	r16, r20
    5ae6:	8e e1       	ldi	r24, 0x1E	; 30
    5ae8:	c8 2e       	mov	r12, r24
    5aea:	d1 2c       	mov	r13, r1
    5aec:	dc 82       	std	Y+4, r13	; 0x04
    5aee:	cb 82       	std	Y+3, r12	; 0x03
    5af0:	ed 82       	std	Y+5, r14	; 0x05
    5af2:	fe 82       	std	Y+6, r15	; 0x06
    5af4:	0f 83       	std	Y+7, r16	; 0x07
    5af6:	18 87       	std	Y+8, r17	; 0x08
    5af8:	c8 01       	movw	r24, r16
    5afa:	b7 01       	movw	r22, r14
    5afc:	0e 94 f1 2d 	call	0x5be2	; 0x5be2 <__clzsi2>
    5b00:	01 97       	sbiw	r24, 0x01	; 1
    5b02:	18 16       	cp	r1, r24
    5b04:	19 06       	cpc	r1, r25
    5b06:	84 f4       	brge	.+32     	; 0x5b28 <__floatsisf+0xaa>
    5b08:	08 2e       	mov	r0, r24
    5b0a:	04 c0       	rjmp	.+8      	; 0x5b14 <__floatsisf+0x96>
    5b0c:	ee 0c       	add	r14, r14
    5b0e:	ff 1c       	adc	r15, r15
    5b10:	00 1f       	adc	r16, r16
    5b12:	11 1f       	adc	r17, r17
    5b14:	0a 94       	dec	r0
    5b16:	d2 f7       	brpl	.-12     	; 0x5b0c <__floatsisf+0x8e>
    5b18:	ed 82       	std	Y+5, r14	; 0x05
    5b1a:	fe 82       	std	Y+6, r15	; 0x06
    5b1c:	0f 83       	std	Y+7, r16	; 0x07
    5b1e:	18 87       	std	Y+8, r17	; 0x08
    5b20:	c8 1a       	sub	r12, r24
    5b22:	d9 0a       	sbc	r13, r25
    5b24:	dc 82       	std	Y+4, r13	; 0x04
    5b26:	cb 82       	std	Y+3, r12	; 0x03
    5b28:	ba 82       	std	Y+2, r11	; 0x02
    5b2a:	ce 01       	movw	r24, r28
    5b2c:	01 96       	adiw	r24, 0x01	; 1
    5b2e:	0e 94 40 2e 	call	0x5c80	; 0x5c80 <__pack_f>
    5b32:	28 96       	adiw	r28, 0x08	; 8
    5b34:	e9 e0       	ldi	r30, 0x09	; 9
    5b36:	0c 94 6f 30 	jmp	0x60de	; 0x60de <__epilogue_restores__+0x12>

00005b3a <__fixsfsi>:
    5b3a:	ac e0       	ldi	r26, 0x0C	; 12
    5b3c:	b0 e0       	ldi	r27, 0x00	; 0
    5b3e:	e3 ea       	ldi	r30, 0xA3	; 163
    5b40:	fd e2       	ldi	r31, 0x2D	; 45
    5b42:	0c 94 5a 30 	jmp	0x60b4	; 0x60b4 <__prologue_saves__+0x20>
    5b46:	69 83       	std	Y+1, r22	; 0x01
    5b48:	7a 83       	std	Y+2, r23	; 0x02
    5b4a:	8b 83       	std	Y+3, r24	; 0x03
    5b4c:	9c 83       	std	Y+4, r25	; 0x04
    5b4e:	ce 01       	movw	r24, r28
    5b50:	01 96       	adiw	r24, 0x01	; 1
    5b52:	be 01       	movw	r22, r28
    5b54:	6b 5f       	subi	r22, 0xFB	; 251
    5b56:	7f 4f       	sbci	r23, 0xFF	; 255
    5b58:	0e 94 15 2f 	call	0x5e2a	; 0x5e2a <__unpack_f>
    5b5c:	8d 81       	ldd	r24, Y+5	; 0x05
    5b5e:	82 30       	cpi	r24, 0x02	; 2
    5b60:	61 f1       	breq	.+88     	; 0x5bba <__fixsfsi+0x80>
    5b62:	82 30       	cpi	r24, 0x02	; 2
    5b64:	50 f1       	brcs	.+84     	; 0x5bba <__fixsfsi+0x80>
    5b66:	84 30       	cpi	r24, 0x04	; 4
    5b68:	21 f4       	brne	.+8      	; 0x5b72 <__fixsfsi+0x38>
    5b6a:	8e 81       	ldd	r24, Y+6	; 0x06
    5b6c:	88 23       	and	r24, r24
    5b6e:	51 f1       	breq	.+84     	; 0x5bc4 <__fixsfsi+0x8a>
    5b70:	2e c0       	rjmp	.+92     	; 0x5bce <__fixsfsi+0x94>
    5b72:	2f 81       	ldd	r18, Y+7	; 0x07
    5b74:	38 85       	ldd	r19, Y+8	; 0x08
    5b76:	37 fd       	sbrc	r19, 7
    5b78:	20 c0       	rjmp	.+64     	; 0x5bba <__fixsfsi+0x80>
    5b7a:	6e 81       	ldd	r22, Y+6	; 0x06
    5b7c:	2f 31       	cpi	r18, 0x1F	; 31
    5b7e:	31 05       	cpc	r19, r1
    5b80:	1c f0       	brlt	.+6      	; 0x5b88 <__fixsfsi+0x4e>
    5b82:	66 23       	and	r22, r22
    5b84:	f9 f0       	breq	.+62     	; 0x5bc4 <__fixsfsi+0x8a>
    5b86:	23 c0       	rjmp	.+70     	; 0x5bce <__fixsfsi+0x94>
    5b88:	8e e1       	ldi	r24, 0x1E	; 30
    5b8a:	90 e0       	ldi	r25, 0x00	; 0
    5b8c:	82 1b       	sub	r24, r18
    5b8e:	93 0b       	sbc	r25, r19
    5b90:	29 85       	ldd	r18, Y+9	; 0x09
    5b92:	3a 85       	ldd	r19, Y+10	; 0x0a
    5b94:	4b 85       	ldd	r20, Y+11	; 0x0b
    5b96:	5c 85       	ldd	r21, Y+12	; 0x0c
    5b98:	04 c0       	rjmp	.+8      	; 0x5ba2 <__fixsfsi+0x68>
    5b9a:	56 95       	lsr	r21
    5b9c:	47 95       	ror	r20
    5b9e:	37 95       	ror	r19
    5ba0:	27 95       	ror	r18
    5ba2:	8a 95       	dec	r24
    5ba4:	d2 f7       	brpl	.-12     	; 0x5b9a <__fixsfsi+0x60>
    5ba6:	66 23       	and	r22, r22
    5ba8:	b1 f0       	breq	.+44     	; 0x5bd6 <__fixsfsi+0x9c>
    5baa:	50 95       	com	r21
    5bac:	40 95       	com	r20
    5bae:	30 95       	com	r19
    5bb0:	21 95       	neg	r18
    5bb2:	3f 4f       	sbci	r19, 0xFF	; 255
    5bb4:	4f 4f       	sbci	r20, 0xFF	; 255
    5bb6:	5f 4f       	sbci	r21, 0xFF	; 255
    5bb8:	0e c0       	rjmp	.+28     	; 0x5bd6 <__fixsfsi+0x9c>
    5bba:	20 e0       	ldi	r18, 0x00	; 0
    5bbc:	30 e0       	ldi	r19, 0x00	; 0
    5bbe:	40 e0       	ldi	r20, 0x00	; 0
    5bc0:	50 e0       	ldi	r21, 0x00	; 0
    5bc2:	09 c0       	rjmp	.+18     	; 0x5bd6 <__fixsfsi+0x9c>
    5bc4:	2f ef       	ldi	r18, 0xFF	; 255
    5bc6:	3f ef       	ldi	r19, 0xFF	; 255
    5bc8:	4f ef       	ldi	r20, 0xFF	; 255
    5bca:	5f e7       	ldi	r21, 0x7F	; 127
    5bcc:	04 c0       	rjmp	.+8      	; 0x5bd6 <__fixsfsi+0x9c>
    5bce:	20 e0       	ldi	r18, 0x00	; 0
    5bd0:	30 e0       	ldi	r19, 0x00	; 0
    5bd2:	40 e0       	ldi	r20, 0x00	; 0
    5bd4:	50 e8       	ldi	r21, 0x80	; 128
    5bd6:	b9 01       	movw	r22, r18
    5bd8:	ca 01       	movw	r24, r20
    5bda:	2c 96       	adiw	r28, 0x0c	; 12
    5bdc:	e2 e0       	ldi	r30, 0x02	; 2
    5bde:	0c 94 76 30 	jmp	0x60ec	; 0x60ec <__epilogue_restores__+0x20>

00005be2 <__clzsi2>:
    5be2:	ef 92       	push	r14
    5be4:	ff 92       	push	r15
    5be6:	0f 93       	push	r16
    5be8:	1f 93       	push	r17
    5bea:	7b 01       	movw	r14, r22
    5bec:	8c 01       	movw	r16, r24
    5bee:	80 e0       	ldi	r24, 0x00	; 0
    5bf0:	e8 16       	cp	r14, r24
    5bf2:	80 e0       	ldi	r24, 0x00	; 0
    5bf4:	f8 06       	cpc	r15, r24
    5bf6:	81 e0       	ldi	r24, 0x01	; 1
    5bf8:	08 07       	cpc	r16, r24
    5bfa:	80 e0       	ldi	r24, 0x00	; 0
    5bfc:	18 07       	cpc	r17, r24
    5bfe:	88 f4       	brcc	.+34     	; 0x5c22 <__clzsi2+0x40>
    5c00:	8f ef       	ldi	r24, 0xFF	; 255
    5c02:	e8 16       	cp	r14, r24
    5c04:	f1 04       	cpc	r15, r1
    5c06:	01 05       	cpc	r16, r1
    5c08:	11 05       	cpc	r17, r1
    5c0a:	31 f0       	breq	.+12     	; 0x5c18 <__clzsi2+0x36>
    5c0c:	28 f0       	brcs	.+10     	; 0x5c18 <__clzsi2+0x36>
    5c0e:	88 e0       	ldi	r24, 0x08	; 8
    5c10:	90 e0       	ldi	r25, 0x00	; 0
    5c12:	a0 e0       	ldi	r26, 0x00	; 0
    5c14:	b0 e0       	ldi	r27, 0x00	; 0
    5c16:	17 c0       	rjmp	.+46     	; 0x5c46 <__clzsi2+0x64>
    5c18:	80 e0       	ldi	r24, 0x00	; 0
    5c1a:	90 e0       	ldi	r25, 0x00	; 0
    5c1c:	a0 e0       	ldi	r26, 0x00	; 0
    5c1e:	b0 e0       	ldi	r27, 0x00	; 0
    5c20:	12 c0       	rjmp	.+36     	; 0x5c46 <__clzsi2+0x64>
    5c22:	80 e0       	ldi	r24, 0x00	; 0
    5c24:	e8 16       	cp	r14, r24
    5c26:	80 e0       	ldi	r24, 0x00	; 0
    5c28:	f8 06       	cpc	r15, r24
    5c2a:	80 e0       	ldi	r24, 0x00	; 0
    5c2c:	08 07       	cpc	r16, r24
    5c2e:	81 e0       	ldi	r24, 0x01	; 1
    5c30:	18 07       	cpc	r17, r24
    5c32:	28 f0       	brcs	.+10     	; 0x5c3e <__clzsi2+0x5c>
    5c34:	88 e1       	ldi	r24, 0x18	; 24
    5c36:	90 e0       	ldi	r25, 0x00	; 0
    5c38:	a0 e0       	ldi	r26, 0x00	; 0
    5c3a:	b0 e0       	ldi	r27, 0x00	; 0
    5c3c:	04 c0       	rjmp	.+8      	; 0x5c46 <__clzsi2+0x64>
    5c3e:	80 e1       	ldi	r24, 0x10	; 16
    5c40:	90 e0       	ldi	r25, 0x00	; 0
    5c42:	a0 e0       	ldi	r26, 0x00	; 0
    5c44:	b0 e0       	ldi	r27, 0x00	; 0
    5c46:	20 e2       	ldi	r18, 0x20	; 32
    5c48:	30 e0       	ldi	r19, 0x00	; 0
    5c4a:	40 e0       	ldi	r20, 0x00	; 0
    5c4c:	50 e0       	ldi	r21, 0x00	; 0
    5c4e:	28 1b       	sub	r18, r24
    5c50:	39 0b       	sbc	r19, r25
    5c52:	4a 0b       	sbc	r20, r26
    5c54:	5b 0b       	sbc	r21, r27
    5c56:	04 c0       	rjmp	.+8      	; 0x5c60 <__clzsi2+0x7e>
    5c58:	16 95       	lsr	r17
    5c5a:	07 95       	ror	r16
    5c5c:	f7 94       	ror	r15
    5c5e:	e7 94       	ror	r14
    5c60:	8a 95       	dec	r24
    5c62:	d2 f7       	brpl	.-12     	; 0x5c58 <__clzsi2+0x76>
    5c64:	f7 01       	movw	r30, r14
    5c66:	e4 56       	subi	r30, 0x64	; 100
    5c68:	fe 4f       	sbci	r31, 0xFE	; 254
    5c6a:	80 81       	ld	r24, Z
    5c6c:	28 1b       	sub	r18, r24
    5c6e:	31 09       	sbc	r19, r1
    5c70:	41 09       	sbc	r20, r1
    5c72:	51 09       	sbc	r21, r1
    5c74:	c9 01       	movw	r24, r18
    5c76:	1f 91       	pop	r17
    5c78:	0f 91       	pop	r16
    5c7a:	ff 90       	pop	r15
    5c7c:	ef 90       	pop	r14
    5c7e:	08 95       	ret

00005c80 <__pack_f>:
    5c80:	df 92       	push	r13
    5c82:	ef 92       	push	r14
    5c84:	ff 92       	push	r15
    5c86:	0f 93       	push	r16
    5c88:	1f 93       	push	r17
    5c8a:	fc 01       	movw	r30, r24
    5c8c:	e4 80       	ldd	r14, Z+4	; 0x04
    5c8e:	f5 80       	ldd	r15, Z+5	; 0x05
    5c90:	06 81       	ldd	r16, Z+6	; 0x06
    5c92:	17 81       	ldd	r17, Z+7	; 0x07
    5c94:	d1 80       	ldd	r13, Z+1	; 0x01
    5c96:	80 81       	ld	r24, Z
    5c98:	82 30       	cpi	r24, 0x02	; 2
    5c9a:	48 f4       	brcc	.+18     	; 0x5cae <__pack_f+0x2e>
    5c9c:	80 e0       	ldi	r24, 0x00	; 0
    5c9e:	90 e0       	ldi	r25, 0x00	; 0
    5ca0:	a0 e1       	ldi	r26, 0x10	; 16
    5ca2:	b0 e0       	ldi	r27, 0x00	; 0
    5ca4:	e8 2a       	or	r14, r24
    5ca6:	f9 2a       	or	r15, r25
    5ca8:	0a 2b       	or	r16, r26
    5caa:	1b 2b       	or	r17, r27
    5cac:	a5 c0       	rjmp	.+330    	; 0x5df8 <__pack_f+0x178>
    5cae:	84 30       	cpi	r24, 0x04	; 4
    5cb0:	09 f4       	brne	.+2      	; 0x5cb4 <__pack_f+0x34>
    5cb2:	9f c0       	rjmp	.+318    	; 0x5df2 <__pack_f+0x172>
    5cb4:	82 30       	cpi	r24, 0x02	; 2
    5cb6:	21 f4       	brne	.+8      	; 0x5cc0 <__pack_f+0x40>
    5cb8:	ee 24       	eor	r14, r14
    5cba:	ff 24       	eor	r15, r15
    5cbc:	87 01       	movw	r16, r14
    5cbe:	05 c0       	rjmp	.+10     	; 0x5cca <__pack_f+0x4a>
    5cc0:	e1 14       	cp	r14, r1
    5cc2:	f1 04       	cpc	r15, r1
    5cc4:	01 05       	cpc	r16, r1
    5cc6:	11 05       	cpc	r17, r1
    5cc8:	19 f4       	brne	.+6      	; 0x5cd0 <__pack_f+0x50>
    5cca:	e0 e0       	ldi	r30, 0x00	; 0
    5ccc:	f0 e0       	ldi	r31, 0x00	; 0
    5cce:	96 c0       	rjmp	.+300    	; 0x5dfc <__pack_f+0x17c>
    5cd0:	62 81       	ldd	r22, Z+2	; 0x02
    5cd2:	73 81       	ldd	r23, Z+3	; 0x03
    5cd4:	9f ef       	ldi	r25, 0xFF	; 255
    5cd6:	62 38       	cpi	r22, 0x82	; 130
    5cd8:	79 07       	cpc	r23, r25
    5cda:	0c f0       	brlt	.+2      	; 0x5cde <__pack_f+0x5e>
    5cdc:	5b c0       	rjmp	.+182    	; 0x5d94 <__pack_f+0x114>
    5cde:	22 e8       	ldi	r18, 0x82	; 130
    5ce0:	3f ef       	ldi	r19, 0xFF	; 255
    5ce2:	26 1b       	sub	r18, r22
    5ce4:	37 0b       	sbc	r19, r23
    5ce6:	2a 31       	cpi	r18, 0x1A	; 26
    5ce8:	31 05       	cpc	r19, r1
    5cea:	2c f0       	brlt	.+10     	; 0x5cf6 <__pack_f+0x76>
    5cec:	20 e0       	ldi	r18, 0x00	; 0
    5cee:	30 e0       	ldi	r19, 0x00	; 0
    5cf0:	40 e0       	ldi	r20, 0x00	; 0
    5cf2:	50 e0       	ldi	r21, 0x00	; 0
    5cf4:	2a c0       	rjmp	.+84     	; 0x5d4a <__pack_f+0xca>
    5cf6:	b8 01       	movw	r22, r16
    5cf8:	a7 01       	movw	r20, r14
    5cfa:	02 2e       	mov	r0, r18
    5cfc:	04 c0       	rjmp	.+8      	; 0x5d06 <__pack_f+0x86>
    5cfe:	76 95       	lsr	r23
    5d00:	67 95       	ror	r22
    5d02:	57 95       	ror	r21
    5d04:	47 95       	ror	r20
    5d06:	0a 94       	dec	r0
    5d08:	d2 f7       	brpl	.-12     	; 0x5cfe <__pack_f+0x7e>
    5d0a:	81 e0       	ldi	r24, 0x01	; 1
    5d0c:	90 e0       	ldi	r25, 0x00	; 0
    5d0e:	a0 e0       	ldi	r26, 0x00	; 0
    5d10:	b0 e0       	ldi	r27, 0x00	; 0
    5d12:	04 c0       	rjmp	.+8      	; 0x5d1c <__pack_f+0x9c>
    5d14:	88 0f       	add	r24, r24
    5d16:	99 1f       	adc	r25, r25
    5d18:	aa 1f       	adc	r26, r26
    5d1a:	bb 1f       	adc	r27, r27
    5d1c:	2a 95       	dec	r18
    5d1e:	d2 f7       	brpl	.-12     	; 0x5d14 <__pack_f+0x94>
    5d20:	01 97       	sbiw	r24, 0x01	; 1
    5d22:	a1 09       	sbc	r26, r1
    5d24:	b1 09       	sbc	r27, r1
    5d26:	8e 21       	and	r24, r14
    5d28:	9f 21       	and	r25, r15
    5d2a:	a0 23       	and	r26, r16
    5d2c:	b1 23       	and	r27, r17
    5d2e:	00 97       	sbiw	r24, 0x00	; 0
    5d30:	a1 05       	cpc	r26, r1
    5d32:	b1 05       	cpc	r27, r1
    5d34:	21 f0       	breq	.+8      	; 0x5d3e <__pack_f+0xbe>
    5d36:	81 e0       	ldi	r24, 0x01	; 1
    5d38:	90 e0       	ldi	r25, 0x00	; 0
    5d3a:	a0 e0       	ldi	r26, 0x00	; 0
    5d3c:	b0 e0       	ldi	r27, 0x00	; 0
    5d3e:	9a 01       	movw	r18, r20
    5d40:	ab 01       	movw	r20, r22
    5d42:	28 2b       	or	r18, r24
    5d44:	39 2b       	or	r19, r25
    5d46:	4a 2b       	or	r20, r26
    5d48:	5b 2b       	or	r21, r27
    5d4a:	da 01       	movw	r26, r20
    5d4c:	c9 01       	movw	r24, r18
    5d4e:	8f 77       	andi	r24, 0x7F	; 127
    5d50:	90 70       	andi	r25, 0x00	; 0
    5d52:	a0 70       	andi	r26, 0x00	; 0
    5d54:	b0 70       	andi	r27, 0x00	; 0
    5d56:	80 34       	cpi	r24, 0x40	; 64
    5d58:	91 05       	cpc	r25, r1
    5d5a:	a1 05       	cpc	r26, r1
    5d5c:	b1 05       	cpc	r27, r1
    5d5e:	39 f4       	brne	.+14     	; 0x5d6e <__pack_f+0xee>
    5d60:	27 ff       	sbrs	r18, 7
    5d62:	09 c0       	rjmp	.+18     	; 0x5d76 <__pack_f+0xf6>
    5d64:	20 5c       	subi	r18, 0xC0	; 192
    5d66:	3f 4f       	sbci	r19, 0xFF	; 255
    5d68:	4f 4f       	sbci	r20, 0xFF	; 255
    5d6a:	5f 4f       	sbci	r21, 0xFF	; 255
    5d6c:	04 c0       	rjmp	.+8      	; 0x5d76 <__pack_f+0xf6>
    5d6e:	21 5c       	subi	r18, 0xC1	; 193
    5d70:	3f 4f       	sbci	r19, 0xFF	; 255
    5d72:	4f 4f       	sbci	r20, 0xFF	; 255
    5d74:	5f 4f       	sbci	r21, 0xFF	; 255
    5d76:	e0 e0       	ldi	r30, 0x00	; 0
    5d78:	f0 e0       	ldi	r31, 0x00	; 0
    5d7a:	20 30       	cpi	r18, 0x00	; 0
    5d7c:	a0 e0       	ldi	r26, 0x00	; 0
    5d7e:	3a 07       	cpc	r19, r26
    5d80:	a0 e0       	ldi	r26, 0x00	; 0
    5d82:	4a 07       	cpc	r20, r26
    5d84:	a0 e4       	ldi	r26, 0x40	; 64
    5d86:	5a 07       	cpc	r21, r26
    5d88:	10 f0       	brcs	.+4      	; 0x5d8e <__pack_f+0x10e>
    5d8a:	e1 e0       	ldi	r30, 0x01	; 1
    5d8c:	f0 e0       	ldi	r31, 0x00	; 0
    5d8e:	79 01       	movw	r14, r18
    5d90:	8a 01       	movw	r16, r20
    5d92:	27 c0       	rjmp	.+78     	; 0x5de2 <__pack_f+0x162>
    5d94:	60 38       	cpi	r22, 0x80	; 128
    5d96:	71 05       	cpc	r23, r1
    5d98:	64 f5       	brge	.+88     	; 0x5df2 <__pack_f+0x172>
    5d9a:	fb 01       	movw	r30, r22
    5d9c:	e1 58       	subi	r30, 0x81	; 129
    5d9e:	ff 4f       	sbci	r31, 0xFF	; 255
    5da0:	d8 01       	movw	r26, r16
    5da2:	c7 01       	movw	r24, r14
    5da4:	8f 77       	andi	r24, 0x7F	; 127
    5da6:	90 70       	andi	r25, 0x00	; 0
    5da8:	a0 70       	andi	r26, 0x00	; 0
    5daa:	b0 70       	andi	r27, 0x00	; 0
    5dac:	80 34       	cpi	r24, 0x40	; 64
    5dae:	91 05       	cpc	r25, r1
    5db0:	a1 05       	cpc	r26, r1
    5db2:	b1 05       	cpc	r27, r1
    5db4:	39 f4       	brne	.+14     	; 0x5dc4 <__pack_f+0x144>
    5db6:	e7 fe       	sbrs	r14, 7
    5db8:	0d c0       	rjmp	.+26     	; 0x5dd4 <__pack_f+0x154>
    5dba:	80 e4       	ldi	r24, 0x40	; 64
    5dbc:	90 e0       	ldi	r25, 0x00	; 0
    5dbe:	a0 e0       	ldi	r26, 0x00	; 0
    5dc0:	b0 e0       	ldi	r27, 0x00	; 0
    5dc2:	04 c0       	rjmp	.+8      	; 0x5dcc <__pack_f+0x14c>
    5dc4:	8f e3       	ldi	r24, 0x3F	; 63
    5dc6:	90 e0       	ldi	r25, 0x00	; 0
    5dc8:	a0 e0       	ldi	r26, 0x00	; 0
    5dca:	b0 e0       	ldi	r27, 0x00	; 0
    5dcc:	e8 0e       	add	r14, r24
    5dce:	f9 1e       	adc	r15, r25
    5dd0:	0a 1f       	adc	r16, r26
    5dd2:	1b 1f       	adc	r17, r27
    5dd4:	17 ff       	sbrs	r17, 7
    5dd6:	05 c0       	rjmp	.+10     	; 0x5de2 <__pack_f+0x162>
    5dd8:	16 95       	lsr	r17
    5dda:	07 95       	ror	r16
    5ddc:	f7 94       	ror	r15
    5dde:	e7 94       	ror	r14
    5de0:	31 96       	adiw	r30, 0x01	; 1
    5de2:	87 e0       	ldi	r24, 0x07	; 7
    5de4:	16 95       	lsr	r17
    5de6:	07 95       	ror	r16
    5de8:	f7 94       	ror	r15
    5dea:	e7 94       	ror	r14
    5dec:	8a 95       	dec	r24
    5dee:	d1 f7       	brne	.-12     	; 0x5de4 <__pack_f+0x164>
    5df0:	05 c0       	rjmp	.+10     	; 0x5dfc <__pack_f+0x17c>
    5df2:	ee 24       	eor	r14, r14
    5df4:	ff 24       	eor	r15, r15
    5df6:	87 01       	movw	r16, r14
    5df8:	ef ef       	ldi	r30, 0xFF	; 255
    5dfa:	f0 e0       	ldi	r31, 0x00	; 0
    5dfc:	6e 2f       	mov	r22, r30
    5dfe:	67 95       	ror	r22
    5e00:	66 27       	eor	r22, r22
    5e02:	67 95       	ror	r22
    5e04:	90 2f       	mov	r25, r16
    5e06:	9f 77       	andi	r25, 0x7F	; 127
    5e08:	d7 94       	ror	r13
    5e0a:	dd 24       	eor	r13, r13
    5e0c:	d7 94       	ror	r13
    5e0e:	8e 2f       	mov	r24, r30
    5e10:	86 95       	lsr	r24
    5e12:	49 2f       	mov	r20, r25
    5e14:	46 2b       	or	r20, r22
    5e16:	58 2f       	mov	r21, r24
    5e18:	5d 29       	or	r21, r13
    5e1a:	b7 01       	movw	r22, r14
    5e1c:	ca 01       	movw	r24, r20
    5e1e:	1f 91       	pop	r17
    5e20:	0f 91       	pop	r16
    5e22:	ff 90       	pop	r15
    5e24:	ef 90       	pop	r14
    5e26:	df 90       	pop	r13
    5e28:	08 95       	ret

00005e2a <__unpack_f>:
    5e2a:	fc 01       	movw	r30, r24
    5e2c:	db 01       	movw	r26, r22
    5e2e:	40 81       	ld	r20, Z
    5e30:	51 81       	ldd	r21, Z+1	; 0x01
    5e32:	22 81       	ldd	r18, Z+2	; 0x02
    5e34:	62 2f       	mov	r22, r18
    5e36:	6f 77       	andi	r22, 0x7F	; 127
    5e38:	70 e0       	ldi	r23, 0x00	; 0
    5e3a:	22 1f       	adc	r18, r18
    5e3c:	22 27       	eor	r18, r18
    5e3e:	22 1f       	adc	r18, r18
    5e40:	93 81       	ldd	r25, Z+3	; 0x03
    5e42:	89 2f       	mov	r24, r25
    5e44:	88 0f       	add	r24, r24
    5e46:	82 2b       	or	r24, r18
    5e48:	28 2f       	mov	r18, r24
    5e4a:	30 e0       	ldi	r19, 0x00	; 0
    5e4c:	99 1f       	adc	r25, r25
    5e4e:	99 27       	eor	r25, r25
    5e50:	99 1f       	adc	r25, r25
    5e52:	11 96       	adiw	r26, 0x01	; 1
    5e54:	9c 93       	st	X, r25
    5e56:	11 97       	sbiw	r26, 0x01	; 1
    5e58:	21 15       	cp	r18, r1
    5e5a:	31 05       	cpc	r19, r1
    5e5c:	a9 f5       	brne	.+106    	; 0x5ec8 <__unpack_f+0x9e>
    5e5e:	41 15       	cp	r20, r1
    5e60:	51 05       	cpc	r21, r1
    5e62:	61 05       	cpc	r22, r1
    5e64:	71 05       	cpc	r23, r1
    5e66:	11 f4       	brne	.+4      	; 0x5e6c <__unpack_f+0x42>
    5e68:	82 e0       	ldi	r24, 0x02	; 2
    5e6a:	37 c0       	rjmp	.+110    	; 0x5eda <__unpack_f+0xb0>
    5e6c:	82 e8       	ldi	r24, 0x82	; 130
    5e6e:	9f ef       	ldi	r25, 0xFF	; 255
    5e70:	13 96       	adiw	r26, 0x03	; 3
    5e72:	9c 93       	st	X, r25
    5e74:	8e 93       	st	-X, r24
    5e76:	12 97       	sbiw	r26, 0x02	; 2
    5e78:	9a 01       	movw	r18, r20
    5e7a:	ab 01       	movw	r20, r22
    5e7c:	67 e0       	ldi	r22, 0x07	; 7
    5e7e:	22 0f       	add	r18, r18
    5e80:	33 1f       	adc	r19, r19
    5e82:	44 1f       	adc	r20, r20
    5e84:	55 1f       	adc	r21, r21
    5e86:	6a 95       	dec	r22
    5e88:	d1 f7       	brne	.-12     	; 0x5e7e <__unpack_f+0x54>
    5e8a:	83 e0       	ldi	r24, 0x03	; 3
    5e8c:	8c 93       	st	X, r24
    5e8e:	0d c0       	rjmp	.+26     	; 0x5eaa <__unpack_f+0x80>
    5e90:	22 0f       	add	r18, r18
    5e92:	33 1f       	adc	r19, r19
    5e94:	44 1f       	adc	r20, r20
    5e96:	55 1f       	adc	r21, r21
    5e98:	12 96       	adiw	r26, 0x02	; 2
    5e9a:	8d 91       	ld	r24, X+
    5e9c:	9c 91       	ld	r25, X
    5e9e:	13 97       	sbiw	r26, 0x03	; 3
    5ea0:	01 97       	sbiw	r24, 0x01	; 1
    5ea2:	13 96       	adiw	r26, 0x03	; 3
    5ea4:	9c 93       	st	X, r25
    5ea6:	8e 93       	st	-X, r24
    5ea8:	12 97       	sbiw	r26, 0x02	; 2
    5eaa:	20 30       	cpi	r18, 0x00	; 0
    5eac:	80 e0       	ldi	r24, 0x00	; 0
    5eae:	38 07       	cpc	r19, r24
    5eb0:	80 e0       	ldi	r24, 0x00	; 0
    5eb2:	48 07       	cpc	r20, r24
    5eb4:	80 e4       	ldi	r24, 0x40	; 64
    5eb6:	58 07       	cpc	r21, r24
    5eb8:	58 f3       	brcs	.-42     	; 0x5e90 <__unpack_f+0x66>
    5eba:	14 96       	adiw	r26, 0x04	; 4
    5ebc:	2d 93       	st	X+, r18
    5ebe:	3d 93       	st	X+, r19
    5ec0:	4d 93       	st	X+, r20
    5ec2:	5c 93       	st	X, r21
    5ec4:	17 97       	sbiw	r26, 0x07	; 7
    5ec6:	08 95       	ret
    5ec8:	2f 3f       	cpi	r18, 0xFF	; 255
    5eca:	31 05       	cpc	r19, r1
    5ecc:	79 f4       	brne	.+30     	; 0x5eec <__unpack_f+0xc2>
    5ece:	41 15       	cp	r20, r1
    5ed0:	51 05       	cpc	r21, r1
    5ed2:	61 05       	cpc	r22, r1
    5ed4:	71 05       	cpc	r23, r1
    5ed6:	19 f4       	brne	.+6      	; 0x5ede <__unpack_f+0xb4>
    5ed8:	84 e0       	ldi	r24, 0x04	; 4
    5eda:	8c 93       	st	X, r24
    5edc:	08 95       	ret
    5ede:	64 ff       	sbrs	r22, 4
    5ee0:	03 c0       	rjmp	.+6      	; 0x5ee8 <__unpack_f+0xbe>
    5ee2:	81 e0       	ldi	r24, 0x01	; 1
    5ee4:	8c 93       	st	X, r24
    5ee6:	12 c0       	rjmp	.+36     	; 0x5f0c <__unpack_f+0xe2>
    5ee8:	1c 92       	st	X, r1
    5eea:	10 c0       	rjmp	.+32     	; 0x5f0c <__unpack_f+0xe2>
    5eec:	2f 57       	subi	r18, 0x7F	; 127
    5eee:	30 40       	sbci	r19, 0x00	; 0
    5ef0:	13 96       	adiw	r26, 0x03	; 3
    5ef2:	3c 93       	st	X, r19
    5ef4:	2e 93       	st	-X, r18
    5ef6:	12 97       	sbiw	r26, 0x02	; 2
    5ef8:	83 e0       	ldi	r24, 0x03	; 3
    5efa:	8c 93       	st	X, r24
    5efc:	87 e0       	ldi	r24, 0x07	; 7
    5efe:	44 0f       	add	r20, r20
    5f00:	55 1f       	adc	r21, r21
    5f02:	66 1f       	adc	r22, r22
    5f04:	77 1f       	adc	r23, r23
    5f06:	8a 95       	dec	r24
    5f08:	d1 f7       	brne	.-12     	; 0x5efe <__unpack_f+0xd4>
    5f0a:	70 64       	ori	r23, 0x40	; 64
    5f0c:	14 96       	adiw	r26, 0x04	; 4
    5f0e:	4d 93       	st	X+, r20
    5f10:	5d 93       	st	X+, r21
    5f12:	6d 93       	st	X+, r22
    5f14:	7c 93       	st	X, r23
    5f16:	17 97       	sbiw	r26, 0x07	; 7
    5f18:	08 95       	ret

00005f1a <__fpcmp_parts_f>:
    5f1a:	1f 93       	push	r17
    5f1c:	dc 01       	movw	r26, r24
    5f1e:	fb 01       	movw	r30, r22
    5f20:	9c 91       	ld	r25, X
    5f22:	92 30       	cpi	r25, 0x02	; 2
    5f24:	08 f4       	brcc	.+2      	; 0x5f28 <__fpcmp_parts_f+0xe>
    5f26:	47 c0       	rjmp	.+142    	; 0x5fb6 <__fpcmp_parts_f+0x9c>
    5f28:	80 81       	ld	r24, Z
    5f2a:	82 30       	cpi	r24, 0x02	; 2
    5f2c:	08 f4       	brcc	.+2      	; 0x5f30 <__fpcmp_parts_f+0x16>
    5f2e:	43 c0       	rjmp	.+134    	; 0x5fb6 <__fpcmp_parts_f+0x9c>
    5f30:	94 30       	cpi	r25, 0x04	; 4
    5f32:	51 f4       	brne	.+20     	; 0x5f48 <__fpcmp_parts_f+0x2e>
    5f34:	11 96       	adiw	r26, 0x01	; 1
    5f36:	1c 91       	ld	r17, X
    5f38:	84 30       	cpi	r24, 0x04	; 4
    5f3a:	99 f5       	brne	.+102    	; 0x5fa2 <__fpcmp_parts_f+0x88>
    5f3c:	81 81       	ldd	r24, Z+1	; 0x01
    5f3e:	68 2f       	mov	r22, r24
    5f40:	70 e0       	ldi	r23, 0x00	; 0
    5f42:	61 1b       	sub	r22, r17
    5f44:	71 09       	sbc	r23, r1
    5f46:	3f c0       	rjmp	.+126    	; 0x5fc6 <__fpcmp_parts_f+0xac>
    5f48:	84 30       	cpi	r24, 0x04	; 4
    5f4a:	21 f0       	breq	.+8      	; 0x5f54 <__fpcmp_parts_f+0x3a>
    5f4c:	92 30       	cpi	r25, 0x02	; 2
    5f4e:	31 f4       	brne	.+12     	; 0x5f5c <__fpcmp_parts_f+0x42>
    5f50:	82 30       	cpi	r24, 0x02	; 2
    5f52:	b9 f1       	breq	.+110    	; 0x5fc2 <__fpcmp_parts_f+0xa8>
    5f54:	81 81       	ldd	r24, Z+1	; 0x01
    5f56:	88 23       	and	r24, r24
    5f58:	89 f1       	breq	.+98     	; 0x5fbc <__fpcmp_parts_f+0xa2>
    5f5a:	2d c0       	rjmp	.+90     	; 0x5fb6 <__fpcmp_parts_f+0x9c>
    5f5c:	11 96       	adiw	r26, 0x01	; 1
    5f5e:	1c 91       	ld	r17, X
    5f60:	11 97       	sbiw	r26, 0x01	; 1
    5f62:	82 30       	cpi	r24, 0x02	; 2
    5f64:	f1 f0       	breq	.+60     	; 0x5fa2 <__fpcmp_parts_f+0x88>
    5f66:	81 81       	ldd	r24, Z+1	; 0x01
    5f68:	18 17       	cp	r17, r24
    5f6a:	d9 f4       	brne	.+54     	; 0x5fa2 <__fpcmp_parts_f+0x88>
    5f6c:	12 96       	adiw	r26, 0x02	; 2
    5f6e:	2d 91       	ld	r18, X+
    5f70:	3c 91       	ld	r19, X
    5f72:	13 97       	sbiw	r26, 0x03	; 3
    5f74:	82 81       	ldd	r24, Z+2	; 0x02
    5f76:	93 81       	ldd	r25, Z+3	; 0x03
    5f78:	82 17       	cp	r24, r18
    5f7a:	93 07       	cpc	r25, r19
    5f7c:	94 f0       	brlt	.+36     	; 0x5fa2 <__fpcmp_parts_f+0x88>
    5f7e:	28 17       	cp	r18, r24
    5f80:	39 07       	cpc	r19, r25
    5f82:	bc f0       	brlt	.+46     	; 0x5fb2 <__fpcmp_parts_f+0x98>
    5f84:	14 96       	adiw	r26, 0x04	; 4
    5f86:	8d 91       	ld	r24, X+
    5f88:	9d 91       	ld	r25, X+
    5f8a:	0d 90       	ld	r0, X+
    5f8c:	bc 91       	ld	r27, X
    5f8e:	a0 2d       	mov	r26, r0
    5f90:	24 81       	ldd	r18, Z+4	; 0x04
    5f92:	35 81       	ldd	r19, Z+5	; 0x05
    5f94:	46 81       	ldd	r20, Z+6	; 0x06
    5f96:	57 81       	ldd	r21, Z+7	; 0x07
    5f98:	28 17       	cp	r18, r24
    5f9a:	39 07       	cpc	r19, r25
    5f9c:	4a 07       	cpc	r20, r26
    5f9e:	5b 07       	cpc	r21, r27
    5fa0:	18 f4       	brcc	.+6      	; 0x5fa8 <__fpcmp_parts_f+0x8e>
    5fa2:	11 23       	and	r17, r17
    5fa4:	41 f0       	breq	.+16     	; 0x5fb6 <__fpcmp_parts_f+0x9c>
    5fa6:	0a c0       	rjmp	.+20     	; 0x5fbc <__fpcmp_parts_f+0xa2>
    5fa8:	82 17       	cp	r24, r18
    5faa:	93 07       	cpc	r25, r19
    5fac:	a4 07       	cpc	r26, r20
    5fae:	b5 07       	cpc	r27, r21
    5fb0:	40 f4       	brcc	.+16     	; 0x5fc2 <__fpcmp_parts_f+0xa8>
    5fb2:	11 23       	and	r17, r17
    5fb4:	19 f0       	breq	.+6      	; 0x5fbc <__fpcmp_parts_f+0xa2>
    5fb6:	61 e0       	ldi	r22, 0x01	; 1
    5fb8:	70 e0       	ldi	r23, 0x00	; 0
    5fba:	05 c0       	rjmp	.+10     	; 0x5fc6 <__fpcmp_parts_f+0xac>
    5fbc:	6f ef       	ldi	r22, 0xFF	; 255
    5fbe:	7f ef       	ldi	r23, 0xFF	; 255
    5fc0:	02 c0       	rjmp	.+4      	; 0x5fc6 <__fpcmp_parts_f+0xac>
    5fc2:	60 e0       	ldi	r22, 0x00	; 0
    5fc4:	70 e0       	ldi	r23, 0x00	; 0
    5fc6:	cb 01       	movw	r24, r22
    5fc8:	1f 91       	pop	r17
    5fca:	08 95       	ret

00005fcc <__divmodhi4>:
    5fcc:	97 fb       	bst	r25, 7
    5fce:	09 2e       	mov	r0, r25
    5fd0:	07 26       	eor	r0, r23
    5fd2:	0a d0       	rcall	.+20     	; 0x5fe8 <__divmodhi4_neg1>
    5fd4:	77 fd       	sbrc	r23, 7
    5fd6:	04 d0       	rcall	.+8      	; 0x5fe0 <__divmodhi4_neg2>
    5fd8:	27 d0       	rcall	.+78     	; 0x6028 <__udivmodhi4>
    5fda:	06 d0       	rcall	.+12     	; 0x5fe8 <__divmodhi4_neg1>
    5fdc:	00 20       	and	r0, r0
    5fde:	1a f4       	brpl	.+6      	; 0x5fe6 <__divmodhi4_exit>

00005fe0 <__divmodhi4_neg2>:
    5fe0:	70 95       	com	r23
    5fe2:	61 95       	neg	r22
    5fe4:	7f 4f       	sbci	r23, 0xFF	; 255

00005fe6 <__divmodhi4_exit>:
    5fe6:	08 95       	ret

00005fe8 <__divmodhi4_neg1>:
    5fe8:	f6 f7       	brtc	.-4      	; 0x5fe6 <__divmodhi4_exit>
    5fea:	90 95       	com	r25
    5fec:	81 95       	neg	r24
    5fee:	9f 4f       	sbci	r25, 0xFF	; 255
    5ff0:	08 95       	ret

00005ff2 <__divmodsi4>:
    5ff2:	97 fb       	bst	r25, 7
    5ff4:	09 2e       	mov	r0, r25
    5ff6:	05 26       	eor	r0, r21
    5ff8:	0e d0       	rcall	.+28     	; 0x6016 <__divmodsi4_neg1>
    5ffa:	57 fd       	sbrc	r21, 7
    5ffc:	04 d0       	rcall	.+8      	; 0x6006 <__divmodsi4_neg2>
    5ffe:	28 d0       	rcall	.+80     	; 0x6050 <__udivmodsi4>
    6000:	0a d0       	rcall	.+20     	; 0x6016 <__divmodsi4_neg1>
    6002:	00 1c       	adc	r0, r0
    6004:	38 f4       	brcc	.+14     	; 0x6014 <__divmodsi4_exit>

00006006 <__divmodsi4_neg2>:
    6006:	50 95       	com	r21
    6008:	40 95       	com	r20
    600a:	30 95       	com	r19
    600c:	21 95       	neg	r18
    600e:	3f 4f       	sbci	r19, 0xFF	; 255
    6010:	4f 4f       	sbci	r20, 0xFF	; 255
    6012:	5f 4f       	sbci	r21, 0xFF	; 255

00006014 <__divmodsi4_exit>:
    6014:	08 95       	ret

00006016 <__divmodsi4_neg1>:
    6016:	f6 f7       	brtc	.-4      	; 0x6014 <__divmodsi4_exit>
    6018:	90 95       	com	r25
    601a:	80 95       	com	r24
    601c:	70 95       	com	r23
    601e:	61 95       	neg	r22
    6020:	7f 4f       	sbci	r23, 0xFF	; 255
    6022:	8f 4f       	sbci	r24, 0xFF	; 255
    6024:	9f 4f       	sbci	r25, 0xFF	; 255
    6026:	08 95       	ret

00006028 <__udivmodhi4>:
    6028:	aa 1b       	sub	r26, r26
    602a:	bb 1b       	sub	r27, r27
    602c:	51 e1       	ldi	r21, 0x11	; 17
    602e:	07 c0       	rjmp	.+14     	; 0x603e <__udivmodhi4_ep>

00006030 <__udivmodhi4_loop>:
    6030:	aa 1f       	adc	r26, r26
    6032:	bb 1f       	adc	r27, r27
    6034:	a6 17       	cp	r26, r22
    6036:	b7 07       	cpc	r27, r23
    6038:	10 f0       	brcs	.+4      	; 0x603e <__udivmodhi4_ep>
    603a:	a6 1b       	sub	r26, r22
    603c:	b7 0b       	sbc	r27, r23

0000603e <__udivmodhi4_ep>:
    603e:	88 1f       	adc	r24, r24
    6040:	99 1f       	adc	r25, r25
    6042:	5a 95       	dec	r21
    6044:	a9 f7       	brne	.-22     	; 0x6030 <__udivmodhi4_loop>
    6046:	80 95       	com	r24
    6048:	90 95       	com	r25
    604a:	bc 01       	movw	r22, r24
    604c:	cd 01       	movw	r24, r26
    604e:	08 95       	ret

00006050 <__udivmodsi4>:
    6050:	a1 e2       	ldi	r26, 0x21	; 33
    6052:	1a 2e       	mov	r1, r26
    6054:	aa 1b       	sub	r26, r26
    6056:	bb 1b       	sub	r27, r27
    6058:	fd 01       	movw	r30, r26
    605a:	0d c0       	rjmp	.+26     	; 0x6076 <__udivmodsi4_ep>

0000605c <__udivmodsi4_loop>:
    605c:	aa 1f       	adc	r26, r26
    605e:	bb 1f       	adc	r27, r27
    6060:	ee 1f       	adc	r30, r30
    6062:	ff 1f       	adc	r31, r31
    6064:	a2 17       	cp	r26, r18
    6066:	b3 07       	cpc	r27, r19
    6068:	e4 07       	cpc	r30, r20
    606a:	f5 07       	cpc	r31, r21
    606c:	20 f0       	brcs	.+8      	; 0x6076 <__udivmodsi4_ep>
    606e:	a2 1b       	sub	r26, r18
    6070:	b3 0b       	sbc	r27, r19
    6072:	e4 0b       	sbc	r30, r20
    6074:	f5 0b       	sbc	r31, r21

00006076 <__udivmodsi4_ep>:
    6076:	66 1f       	adc	r22, r22
    6078:	77 1f       	adc	r23, r23
    607a:	88 1f       	adc	r24, r24
    607c:	99 1f       	adc	r25, r25
    607e:	1a 94       	dec	r1
    6080:	69 f7       	brne	.-38     	; 0x605c <__udivmodsi4_loop>
    6082:	60 95       	com	r22
    6084:	70 95       	com	r23
    6086:	80 95       	com	r24
    6088:	90 95       	com	r25
    608a:	9b 01       	movw	r18, r22
    608c:	ac 01       	movw	r20, r24
    608e:	bd 01       	movw	r22, r26
    6090:	cf 01       	movw	r24, r30
    6092:	08 95       	ret

00006094 <__prologue_saves__>:
    6094:	2f 92       	push	r2
    6096:	3f 92       	push	r3
    6098:	4f 92       	push	r4
    609a:	5f 92       	push	r5
    609c:	6f 92       	push	r6
    609e:	7f 92       	push	r7
    60a0:	8f 92       	push	r8
    60a2:	9f 92       	push	r9
    60a4:	af 92       	push	r10
    60a6:	bf 92       	push	r11
    60a8:	cf 92       	push	r12
    60aa:	df 92       	push	r13
    60ac:	ef 92       	push	r14
    60ae:	ff 92       	push	r15
    60b0:	0f 93       	push	r16
    60b2:	1f 93       	push	r17
    60b4:	cf 93       	push	r28
    60b6:	df 93       	push	r29
    60b8:	cd b7       	in	r28, 0x3d	; 61
    60ba:	de b7       	in	r29, 0x3e	; 62
    60bc:	ca 1b       	sub	r28, r26
    60be:	db 0b       	sbc	r29, r27
    60c0:	0f b6       	in	r0, 0x3f	; 63
    60c2:	f8 94       	cli
    60c4:	de bf       	out	0x3e, r29	; 62
    60c6:	0f be       	out	0x3f, r0	; 63
    60c8:	cd bf       	out	0x3d, r28	; 61
    60ca:	09 94       	ijmp

000060cc <__epilogue_restores__>:
    60cc:	2a 88       	ldd	r2, Y+18	; 0x12
    60ce:	39 88       	ldd	r3, Y+17	; 0x11
    60d0:	48 88       	ldd	r4, Y+16	; 0x10
    60d2:	5f 84       	ldd	r5, Y+15	; 0x0f
    60d4:	6e 84       	ldd	r6, Y+14	; 0x0e
    60d6:	7d 84       	ldd	r7, Y+13	; 0x0d
    60d8:	8c 84       	ldd	r8, Y+12	; 0x0c
    60da:	9b 84       	ldd	r9, Y+11	; 0x0b
    60dc:	aa 84       	ldd	r10, Y+10	; 0x0a
    60de:	b9 84       	ldd	r11, Y+9	; 0x09
    60e0:	c8 84       	ldd	r12, Y+8	; 0x08
    60e2:	df 80       	ldd	r13, Y+7	; 0x07
    60e4:	ee 80       	ldd	r14, Y+6	; 0x06
    60e6:	fd 80       	ldd	r15, Y+5	; 0x05
    60e8:	0c 81       	ldd	r16, Y+4	; 0x04
    60ea:	1b 81       	ldd	r17, Y+3	; 0x03
    60ec:	aa 81       	ldd	r26, Y+2	; 0x02
    60ee:	b9 81       	ldd	r27, Y+1	; 0x01
    60f0:	ce 0f       	add	r28, r30
    60f2:	d1 1d       	adc	r29, r1
    60f4:	0f b6       	in	r0, 0x3f	; 63
    60f6:	f8 94       	cli
    60f8:	de bf       	out	0x3e, r29	; 62
    60fa:	0f be       	out	0x3f, r0	; 63
    60fc:	cd bf       	out	0x3d, r28	; 61
    60fe:	ed 01       	movw	r28, r26
    6100:	08 95       	ret

00006102 <do_rand>:
    6102:	af 92       	push	r10
    6104:	bf 92       	push	r11
    6106:	cf 92       	push	r12
    6108:	df 92       	push	r13
    610a:	ef 92       	push	r14
    610c:	ff 92       	push	r15
    610e:	0f 93       	push	r16
    6110:	1f 93       	push	r17
    6112:	cf 93       	push	r28
    6114:	df 93       	push	r29
    6116:	ec 01       	movw	r28, r24
    6118:	a8 80       	ld	r10, Y
    611a:	b9 80       	ldd	r11, Y+1	; 0x01
    611c:	ca 80       	ldd	r12, Y+2	; 0x02
    611e:	db 80       	ldd	r13, Y+3	; 0x03
    6120:	a1 14       	cp	r10, r1
    6122:	b1 04       	cpc	r11, r1
    6124:	c1 04       	cpc	r12, r1
    6126:	d1 04       	cpc	r13, r1
    6128:	41 f4       	brne	.+16     	; 0x613a <do_rand+0x38>
    612a:	84 e2       	ldi	r24, 0x24	; 36
    612c:	a8 2e       	mov	r10, r24
    612e:	89 ed       	ldi	r24, 0xD9	; 217
    6130:	b8 2e       	mov	r11, r24
    6132:	8b e5       	ldi	r24, 0x5B	; 91
    6134:	c8 2e       	mov	r12, r24
    6136:	87 e0       	ldi	r24, 0x07	; 7
    6138:	d8 2e       	mov	r13, r24
    613a:	c6 01       	movw	r24, r12
    613c:	b5 01       	movw	r22, r10
    613e:	2d e1       	ldi	r18, 0x1D	; 29
    6140:	33 ef       	ldi	r19, 0xF3	; 243
    6142:	41 e0       	ldi	r20, 0x01	; 1
    6144:	50 e0       	ldi	r21, 0x00	; 0
    6146:	0e 94 f9 2f 	call	0x5ff2	; 0x5ff2 <__divmodsi4>
    614a:	27 ea       	ldi	r18, 0xA7	; 167
    614c:	31 e4       	ldi	r19, 0x41	; 65
    614e:	40 e0       	ldi	r20, 0x00	; 0
    6150:	50 e0       	ldi	r21, 0x00	; 0
    6152:	0e 94 1c 31 	call	0x6238	; 0x6238 <__mulsi3>
    6156:	7b 01       	movw	r14, r22
    6158:	8c 01       	movw	r16, r24
    615a:	c6 01       	movw	r24, r12
    615c:	b5 01       	movw	r22, r10
    615e:	2d e1       	ldi	r18, 0x1D	; 29
    6160:	33 ef       	ldi	r19, 0xF3	; 243
    6162:	41 e0       	ldi	r20, 0x01	; 1
    6164:	50 e0       	ldi	r21, 0x00	; 0
    6166:	0e 94 f9 2f 	call	0x5ff2	; 0x5ff2 <__divmodsi4>
    616a:	ca 01       	movw	r24, r20
    616c:	b9 01       	movw	r22, r18
    616e:	2c ee       	ldi	r18, 0xEC	; 236
    6170:	34 ef       	ldi	r19, 0xF4	; 244
    6172:	4f ef       	ldi	r20, 0xFF	; 255
    6174:	5f ef       	ldi	r21, 0xFF	; 255
    6176:	0e 94 1c 31 	call	0x6238	; 0x6238 <__mulsi3>
    617a:	6e 0d       	add	r22, r14
    617c:	7f 1d       	adc	r23, r15
    617e:	80 1f       	adc	r24, r16
    6180:	91 1f       	adc	r25, r17
    6182:	97 ff       	sbrs	r25, 7
    6184:	04 c0       	rjmp	.+8      	; 0x618e <do_rand+0x8c>
    6186:	61 50       	subi	r22, 0x01	; 1
    6188:	70 40       	sbci	r23, 0x00	; 0
    618a:	80 40       	sbci	r24, 0x00	; 0
    618c:	90 48       	sbci	r25, 0x80	; 128
    618e:	68 83       	st	Y, r22
    6190:	79 83       	std	Y+1, r23	; 0x01
    6192:	8a 83       	std	Y+2, r24	; 0x02
    6194:	9b 83       	std	Y+3, r25	; 0x03
    6196:	9b 01       	movw	r18, r22
    6198:	3f 77       	andi	r19, 0x7F	; 127
    619a:	c9 01       	movw	r24, r18
    619c:	df 91       	pop	r29
    619e:	cf 91       	pop	r28
    61a0:	1f 91       	pop	r17
    61a2:	0f 91       	pop	r16
    61a4:	ff 90       	pop	r15
    61a6:	ef 90       	pop	r14
    61a8:	df 90       	pop	r13
    61aa:	cf 90       	pop	r12
    61ac:	bf 90       	pop	r11
    61ae:	af 90       	pop	r10
    61b0:	08 95       	ret

000061b2 <rand_r>:
    61b2:	0e 94 81 30 	call	0x6102	; 0x6102 <do_rand>
    61b6:	08 95       	ret

000061b8 <rand>:
    61b8:	8c e9       	ldi	r24, 0x9C	; 156
    61ba:	92 e0       	ldi	r25, 0x02	; 2
    61bc:	0e 94 81 30 	call	0x6102	; 0x6102 <do_rand>
    61c0:	08 95       	ret

000061c2 <srand>:
    61c2:	a0 e0       	ldi	r26, 0x00	; 0
    61c4:	b0 e0       	ldi	r27, 0x00	; 0
    61c6:	80 93 9c 02 	sts	0x029C, r24
    61ca:	90 93 9d 02 	sts	0x029D, r25
    61ce:	a0 93 9e 02 	sts	0x029E, r26
    61d2:	b0 93 9f 02 	sts	0x029F, r27
    61d6:	08 95       	ret

000061d8 <__eerd_dword_m128>:
    61d8:	a6 e1       	ldi	r26, 0x16	; 22
    61da:	b0 e0       	ldi	r27, 0x00	; 0
    61dc:	44 e0       	ldi	r20, 0x04	; 4
    61de:	50 e0       	ldi	r21, 0x00	; 0
    61e0:	0c 94 01 31 	jmp	0x6202	; 0x6202 <__eerd_blraw_m128>

000061e4 <__eewr_dword_m128>:
    61e4:	24 2f       	mov	r18, r20
    61e6:	0e 94 10 31 	call	0x6220	; 0x6220 <__eewr_r18_m128>
    61ea:	25 2f       	mov	r18, r21
    61ec:	0e 94 10 31 	call	0x6220	; 0x6220 <__eewr_r18_m128>
    61f0:	0c 94 fa 30 	jmp	0x61f4	; 0x61f4 <__eewr_word_m128>

000061f4 <__eewr_word_m128>:
    61f4:	0e 94 0f 31 	call	0x621e	; 0x621e <__eewr_byte_m128>
    61f8:	27 2f       	mov	r18, r23
    61fa:	0c 94 10 31 	jmp	0x6220	; 0x6220 <__eewr_r18_m128>

000061fe <__eerd_block_m128>:
    61fe:	dc 01       	movw	r26, r24
    6200:	cb 01       	movw	r24, r22

00006202 <__eerd_blraw_m128>:
    6202:	fc 01       	movw	r30, r24
    6204:	e1 99       	sbic	0x1c, 1	; 28
    6206:	fe cf       	rjmp	.-4      	; 0x6204 <__eerd_blraw_m128+0x2>
    6208:	06 c0       	rjmp	.+12     	; 0x6216 <__eerd_blraw_m128+0x14>
    620a:	ff bb       	out	0x1f, r31	; 31
    620c:	ee bb       	out	0x1e, r30	; 30
    620e:	e0 9a       	sbi	0x1c, 0	; 28
    6210:	31 96       	adiw	r30, 0x01	; 1
    6212:	0d b2       	in	r0, 0x1d	; 29
    6214:	0d 92       	st	X+, r0
    6216:	41 50       	subi	r20, 0x01	; 1
    6218:	50 40       	sbci	r21, 0x00	; 0
    621a:	b8 f7       	brcc	.-18     	; 0x620a <__eerd_blraw_m128+0x8>
    621c:	08 95       	ret

0000621e <__eewr_byte_m128>:
    621e:	26 2f       	mov	r18, r22

00006220 <__eewr_r18_m128>:
    6220:	e1 99       	sbic	0x1c, 1	; 28
    6222:	fe cf       	rjmp	.-4      	; 0x6220 <__eewr_r18_m128>
    6224:	9f bb       	out	0x1f, r25	; 31
    6226:	8e bb       	out	0x1e, r24	; 30
    6228:	2d bb       	out	0x1d, r18	; 29
    622a:	0f b6       	in	r0, 0x3f	; 63
    622c:	f8 94       	cli
    622e:	e2 9a       	sbi	0x1c, 2	; 28
    6230:	e1 9a       	sbi	0x1c, 1	; 28
    6232:	0f be       	out	0x3f, r0	; 63
    6234:	01 96       	adiw	r24, 0x01	; 1
    6236:	08 95       	ret

00006238 <__mulsi3>:
    6238:	62 9f       	mul	r22, r18
    623a:	d0 01       	movw	r26, r0
    623c:	73 9f       	mul	r23, r19
    623e:	f0 01       	movw	r30, r0
    6240:	82 9f       	mul	r24, r18
    6242:	e0 0d       	add	r30, r0
    6244:	f1 1d       	adc	r31, r1
    6246:	64 9f       	mul	r22, r20
    6248:	e0 0d       	add	r30, r0
    624a:	f1 1d       	adc	r31, r1
    624c:	92 9f       	mul	r25, r18
    624e:	f0 0d       	add	r31, r0
    6250:	83 9f       	mul	r24, r19
    6252:	f0 0d       	add	r31, r0
    6254:	74 9f       	mul	r23, r20
    6256:	f0 0d       	add	r31, r0
    6258:	65 9f       	mul	r22, r21
    625a:	f0 0d       	add	r31, r0
    625c:	99 27       	eor	r25, r25
    625e:	72 9f       	mul	r23, r18
    6260:	b0 0d       	add	r27, r0
    6262:	e1 1d       	adc	r30, r1
    6264:	f9 1f       	adc	r31, r25
    6266:	63 9f       	mul	r22, r19
    6268:	b0 0d       	add	r27, r0
    626a:	e1 1d       	adc	r30, r1
    626c:	f9 1f       	adc	r31, r25
    626e:	bd 01       	movw	r22, r26
    6270:	cf 01       	movw	r24, r30
    6272:	11 24       	eor	r1, r1
    6274:	08 95       	ret

00006276 <_exit>:
    6276:	f8 94       	cli

00006278 <__stop_program>:
    6278:	ff cf       	rjmp	.-2      	; 0x6278 <__stop_program>
